 Touch

 Timestamp is 5bc88611 (Thu Oct 18 21:09:37 2018)

 Preferred load address is 0000000000000000

 Start         Length     Name                   Class
 0001:00000000 000030e0H .text$mn                CODE
 0002:00000000 00000d90H .data                   DATA
 0002:00000d90 00000662H .rdata                  DATA
 0002:00001400 000000c8H .bss                    DATA
 0003:00000000 000001e0H .pdata                  DATA
 0004:00000000 0000023cH .xdata                  DATA

  Address         Publics by Value              Rva+Base               Lib:Object

 0000:00000000       __guard_fids_count         0000000000000000     <absolute>
 0000:00000000       __guard_fids_table         0000000000000000     <absolute>
 0000:00000000       __guard_flags              0000000000000000     <absolute>
 0001:00000000       InitializeTouch            0000000000000280 f   Touch:touch.obj
 0001:00000348       TouchFile                  00000000000005c8 f   Touch:touch.obj
 0001:00000510       CreateChild                0000000000000790 f   Touch:touch.obj
 0001:00000680       TouchFreeFileArg           0000000000000900 f   Touch:touch.obj
 0001:00000730       LibCheckVarGetFlag         00000000000009b0 f   EfiShellLib:VarCheck.obj
 0001:00000774       iCompareSetFlag            00000000000009f4 f   EfiShellLib:VarCheck.obj
 0001:000007d0       LibCheckVariables          0000000000000a50 f   EfiShellLib:VarCheck.obj
 0001:00000b1c       CopyMem                    0000000000000d9c f   EfiShellLib:Mem.obj
 0001:00000b60       AllocatePool               0000000000000de0 f   EfiShellLib:Mem.obj
 0001:00000b94       ReallocatePool             0000000000000e14 f   EfiShellLib:Mem.obj
 0001:00000c08       AllocateZeroPool           0000000000000e88 f   EfiShellLib:Mem.obj
 0001:00000c34       InitializeUnicodeCollationSupportWorker 0000000000000eb4 f   EfiShellLib:Init.obj
 0001:00000d30       LibInitializeStrings       0000000000000fb0 f   EfiShellLib:Init.obj
 0001:00000e20       LibInitializeShellApplication 00000000000010a0 f   EfiShellLib:Init.obj
 0001:00001088       LibGetVariableAndSize      0000000000001308 f   EfiShellLib:Misc.obj
 0001:00001114       GrowBuffer                 0000000000001394 f   EfiShellLib:Misc.obj
 0001:000011b4       GuidToString               0000000000001434 f   EfiShellLib:Misc.obj
 0001:000012c4       StatusToString             0000000000001544 f   EfiShellLib:Misc.obj
 0001:00001664       LibFilterNullArgs          00000000000018e4 f   EfiShellLib:Misc.obj
 0001:000017f8       ValueToString              0000000000001a78 f   EfiShellLib:Misc.obj
 0001:000018e0       GetBestLanguage            0000000000001b60 f   EfiShellLib:Misc.obj
 0001:00001a3c       LibSelectBestLanguage      0000000000001cbc f   EfiShellLib:Misc.obj
 0001:00001ad0       _SPrint                    0000000000001d50 f   EfiShellLib:IO.obj
 0001:00001b48       _PoolCatPrint              0000000000001dc8 f   EfiShellLib:IO.obj
 0001:00001b94       SPrint                     0000000000001e14 f   EfiShellLib:IO.obj
 0001:00001c08       PoolPrint                  0000000000001e88 f   EfiShellLib:IO.obj
 0001:00001c54       PrintToken                 0000000000001ed4 f   EfiShellLib:IO.obj
 0001:00001d20       _IPrint                    0000000000001fa0 f   EfiShellLib:IO.obj
 0001:00001dd4       PFLUSH                     0000000000002054 f   EfiShellLib:IO.obj
 0001:00001e94       PSETATTR                   0000000000002114 f   EfiShellLib:IO.obj
 0001:00001ed8       PPUTC                      0000000000002158 f   EfiShellLib:IO.obj
 0001:00001f54       PITEM                      00000000000021d4 f   EfiShellLib:IO.obj
 0001:00002084       _Print                     0000000000002304 f   EfiShellLib:IO.obj
 0001:0000269c       SetPageBreak               000000000000291c f   EfiShellLib:IO.obj
 0001:000027b0       IFlushWithPageBreak        0000000000002a30 f   EfiShellLib:IO.obj
 0001:000028f4       _PoolPrint                 0000000000002b74 f   EfiShellLib:IO.obj
 0001:00002978       LibStubMetaiMatch          0000000000002bf8 f   EfiShellLib:Str.obj
 0001:00002984       MetaMatch                  0000000000002c04 f   EfiShellLib:Str.obj
 0001:00002b9c       LibStubStriCmp             0000000000002e1c f   EfiShellLib:Str.obj
 0001:00002c20       LibStubStrUpr              0000000000002ea0 f   EfiShellLib:Str.obj
 0001:00002c40       LibStubStrLwr              0000000000002ec0 f   EfiShellLib:Str.obj
 0001:00002c60       StrDuplicate               0000000000002ee0 f   EfiShellLib:Str.obj
 0001:00002cc8       LocateHiiProtocols         0000000000002f48 f   EfiShellLib:HiiSupport.obj
 0001:00002d14       PreparePackageList         0000000000002f94 f   EfiShellLib:HiiSupport.obj
 0001:00002e08       LibGetString               0000000000003088 f   EfiShellLib:HiiSupport.obj
 0001:00002f98       LibLocateHandle            0000000000003218 f   EfiShellLib:Handle.obj
 0001:0000303c       LibLocateProtocol          00000000000032bc f   EfiShellLib:Handle.obj
 0002:00000000       TouchCheckList             0000000000003360     Touch:touch.obj
 0002:00000060       EfiTouchGuid               00000000000033c0     Touch:touch.obj
 0002:00000070       TouchStrings               00000000000033d0     Touch:AutoGen.obj
 0002:00000ca8       SESGuid                    0000000000004008     EfiShellLib:Init.obj
 0002:00000cb8       PoolAllocationType         0000000000004018     EfiShellLib:Data.obj
 0002:00000cc0       ShellEnvProtocol           0000000000004020     EfiShellLib:Data.obj
 0002:00000cd0       LibStubUnicodeInterface    0000000000004030     EfiShellLib:Data.obj
 0002:00000d08       UnicodeInterface           0000000000004068     EfiShellLib:Data.obj
 0002:00000d10       ShellInterfaceProtocol     0000000000004070     EfiShellLib:Misc.obj
 0002:00000d20       gEfiFileInfoGuid           0000000000004080     EfiProtocolLib:FileInfo.obj
 0002:00000d30       gEfiLoadedImageProtocolGuid 0000000000004090     EfiProtocolLib:LoadedImage.obj
 0002:00000d40       gEfiUnicodeCollation2ProtocolGuid 00000000000040a0     EfiProtocolLib:UnicodeCollation2.obj
 0002:00000d50       gEfiUnicodeCollationProtocolGuid 00000000000040b0     EfiProtocolLib:UnicodeCollation.obj
 0002:00000d60       gEfiHiiStringProtocolGuid  00000000000040c0     EfiProtocolLib:HiiString.obj
 0002:00000d70       gEfiHiiDatabaseProtocolGuid 00000000000040d0     EfiProtocolLib:HiiDatabase.obj
 0002:00000d80       gEfiGlobalVariableGuid     00000000000040e0     EfiGuidLib:GlobalVariable.obj
 0002:00000d90       ??_C@_15DEDJCAKD@?$AA?9?$AAr?$AA?$AA@ 00000000000040f0     Touch:touch.obj
 0002:00000d98       ??_C@_15GECAHHDM@?$AA?9?$AAb?$AA?$AA@ 00000000000040f8     Touch:touch.obj
 0002:00000da0       ??_C@_15FNEHKAED@?$AA?9?$AA?$DP?$AA?$AA@ 0000000000004100     Touch:touch.obj
 0002:00000da8       ??_C@_19DGCMIEJL@?$AA0?$AA?4?$AA9?$AA9?$AA?$AA@ 0000000000004108     Touch:touch.obj
 0002:00000db8       ??_C@_1M@BHMIOBAK@?$AAt?$AAo?$AAu?$AAc?$AAh?$AA?$AA@ 0000000000004118     Touch:touch.obj
 0002:00000dc8       ??_C@_1M@GGGENIPJ@?$AA1?$AA?4?$AA1?$AA?4?$AA1?$AA?$AA@ 0000000000004128     Touch:touch.obj
 0002:00000dd4       ??_C@_13JOFGPIOO@?$AA?4?$AA?$AA@ 0000000000004134     Touch:touch.obj
 0002:00000dd8       ??_C@_15DDHGOCBH@?$AA?4?$AA?4?$AA?$AA@ 0000000000004138     Touch:touch.obj
 0002:00000de0       ??_C@_1BA@LLMHEPOF@?$AA?$CF?$AA?4?$AA?$CK?$AAs?$AA?2?$AA?$CF?$AAs?$AA?$AA@ 0000000000004140     Touch:touch.obj
 0002:00000df0       ??_C@_19BALNHBBC@?$AAL?$AAa?$AAn?$AAg?$AA?$AA@ 0000000000004150     EfiShellLib:Misc.obj
 0002:00000e00       ??_C@_1BK@GGGENMOA@?$AAP?$AAl?$AAa?$AAt?$AAf?$AAo?$AAr?$AAm?$AAL?$AAa?$AAn?$AAg?$AA?$AA@ 0000000000004160     EfiShellLib:Misc.obj
 0002:00000e1c       ??_C@_15GANGMFKL@?$AA?$CF?$AAs?$AA?$AA@ 000000000000417c     EfiShellLib:Misc.obj
 0002:00000e30       ??_C@_1GC@MIJCAPDC@?$AA?$CF?$AA0?$AA8?$AAx?$AA?9?$AA?$CF?$AA0?$AA4?$AAx?$AA?9?$AA?$CF?$AA0?$AA4?$AAx?$AA?9?$AA?$CF?$AA0?$AA2?$AAx?$AA?$CF?$AA0?$AA2?$AAx?$AA?9?$AA?$CF?$AA0?$AA2?$AAx?$AA?$CF?$AA0?$AA2?$AAx@ 0000000000004190     EfiShellLib:Misc.obj
 0002:00000e98       ??_C@_1BA@JFDCMKFN@?$AAS?$AAu?$AAc?$AAc?$AAe?$AAs?$AAs?$AA?$AA@ 00000000000041f8     EfiShellLib:Misc.obj
 0002:00000ea8       ??_C@_1BG@IPPBEJLN@?$AAL?$AAo?$AAa?$AAd?$AA?5?$AAE?$AAr?$AAr?$AAo?$AAr?$AA?$AA@ 0000000000004208     EfiShellLib:Misc.obj
 0002:00000ec0       ??_C@_1CE@FAJJAJHO@?$AAI?$AAn?$AAv?$AAa?$AAl?$AAi?$AAd?$AA?5?$AAP?$AAa?$AAr?$AAa?$AAm?$AAe?$AAt?$AAe?$AAr?$AA?$AA@ 0000000000004220     EfiShellLib:Misc.obj
 0002:00000ee8       ??_C@_1BI@HACEKCKB@?$AAU?$AAn?$AAs?$AAu?$AAp?$AAp?$AAo?$AAr?$AAt?$AAe?$AAd?$AA?$AA@ 0000000000004248     EfiShellLib:Misc.obj
 0002:00000f00       ??_C@_1CA@MKNIKBGN@?$AAB?$AAa?$AAd?$AA?5?$AAB?$AAu?$AAf?$AAf?$AAe?$AAr?$AA?5?$AAS?$AAi?$AAz?$AAe?$AA?$AA@ 0000000000004260     EfiShellLib:Misc.obj
 0002:00000f20       ??_C@_1CC@GADLJCKI@?$AAB?$AAu?$AAf?$AAf?$AAe?$AAr?$AA?5?$AAT?$AAo?$AAo?$AA?5?$AAS?$AAm?$AAa?$AAl?$AAl?$AA?$AA@ 0000000000004280     EfiShellLib:Misc.obj
 0002:00000f48       ??_C@_1BE@HFDAGNKF@?$AAN?$AAo?$AAt?$AA?5?$AAR?$AAe?$AAa?$AAd?$AAy?$AA?$AA@ 00000000000042a8     EfiShellLib:Misc.obj
 0002:00000f60       ??_C@_1BK@MPLHBIOA@?$AAD?$AAe?$AAv?$AAi?$AAc?$AAe?$AA?5?$AAE?$AAr?$AAr?$AAo?$AAr?$AA?$AA@ 00000000000042c0     EfiShellLib:Misc.obj
 0002:00000f80       ??_C@_1CA@PAGBHICH@?$AAW?$AAr?$AAi?$AAt?$AAe?$AA?5?$AAP?$AAr?$AAo?$AAt?$AAe?$AAc?$AAt?$AAe?$AAd?$AA?$AA@ 00000000000042e0     EfiShellLib:Misc.obj
 0002:00000fa0       ??_C@_1CC@JDEEHPBA@?$AAO?$AAu?$AAt?$AA?5?$AAo?$AAf?$AA?5?$AAR?$AAe?$AAs?$AAo?$AAu?$AAr?$AAc?$AAe?$AAs?$AA?$AA@ 0000000000004300     EfiShellLib:Misc.obj
 0002:00000fc8       ??_C@_1CC@IIFGLPAC@?$AAV?$AAo?$AAl?$AAu?$AAm?$AAe?$AA?5?$AAC?$AAo?$AAr?$AAr?$AAu?$AAp?$AAt?$AAe?$AAd?$AA?$AA@ 0000000000004328     EfiShellLib:Misc.obj
 0002:00000ff0       ??_C@_1BI@KDMJOJPB@?$AAV?$AAo?$AAl?$AAu?$AAm?$AAe?$AA?5?$AAF?$AAu?$AAl?$AAl?$AA?$AA@ 0000000000004350     EfiShellLib:Misc.obj
 0002:00001008       ??_C@_1BC@CAEJNJKB@?$AAN?$AAo?$AA?5?$AAM?$AAe?$AAd?$AAi?$AAa?$AA?$AA@ 0000000000004368     EfiShellLib:Misc.obj
 0002:00001020       ??_C@_1BM@CGJAEDJP@?$AAM?$AAe?$AAd?$AAi?$AAa?$AA?5?$AAC?$AAh?$AAa?$AAn?$AAg?$AAe?$AAd?$AA?$AA@ 0000000000004380     EfiShellLib:Misc.obj
 0002:00001040       ??_C@_1BE@JGBFLIBK@?$AAN?$AAo?$AAt?$AA?5?$AAF?$AAo?$AAu?$AAn?$AAd?$AA?$AA@ 00000000000043a0     EfiShellLib:Misc.obj
 0002:00001058       ??_C@_1BM@HDPINFLL@?$AAA?$AAc?$AAc?$AAe?$AAs?$AAs?$AA?5?$AAD?$AAe?$AAn?$AAi?$AAe?$AAd?$AA?$AA@ 00000000000043b8     EfiShellLib:Misc.obj
 0002:00001078       ??_C@_1BI@JIAAMNOB@?$AAN?$AAo?$AA?5?$AAR?$AAe?$AAs?$AAp?$AAo?$AAn?$AAs?$AAe?$AA?$AA@ 00000000000043d8     EfiShellLib:Misc.obj
 0002:00001090       ??_C@_1BG@OHLJONME@?$AAN?$AAo?$AA?5?$AAM?$AAa?$AAp?$AAp?$AAi?$AAn?$AAg?$AA?$AA@ 00000000000043f0     EfiShellLib:Misc.obj
 0002:000010a8       ??_C@_1BC@GINMNENH@?$AAT?$AAi?$AAm?$AAe?$AA?5?$AAO?$AAu?$AAt?$AA?$AA@ 0000000000004408     EfiShellLib:Misc.obj
 0002:000010c0       ??_C@_1BI@MNIOFEEM@?$AAN?$AAo?$AAt?$AA?5?$AAS?$AAt?$AAa?$AAr?$AAt?$AAe?$AAd?$AA?$AA@ 0000000000004420     EfiShellLib:Misc.obj
 0002:000010d8       ??_C@_1CA@CNMNDJCM@?$AAA?$AAl?$AAr?$AAe?$AAa?$AAd?$AAy?$AA?5?$AAS?$AAt?$AAa?$AAr?$AAt?$AAe?$AAd?$AA?$AA@ 0000000000004438     EfiShellLib:Misc.obj
 0002:000010f8       ??_C@_1BA@JCPMFPEO@?$AAA?$AAb?$AAo?$AAr?$AAt?$AAe?$AAd?$AA?$AA@ 0000000000004458     EfiShellLib:Misc.obj
 0002:00001108       ??_C@_1BG@GJCEBLMD@?$AAI?$AAC?$AAM?$AAP?$AA?5?$AAE?$AAr?$AAr?$AAo?$AAr?$AA?$AA@ 0000000000004468     EfiShellLib:Misc.obj
 0002:00001120       ??_C@_1BG@MPDDBEKI@?$AAT?$AAF?$AAT?$AAP?$AA?5?$AAE?$AAr?$AAr?$AAo?$AAr?$AA?$AA@ 0000000000004480     EfiShellLib:Misc.obj
 0002:00001138       ??_C@_1BO@MGICIKC@?$AAP?$AAr?$AAo?$AAt?$AAo?$AAc?$AAo?$AAl?$AA?5?$AAE?$AAr?$AAr?$AAo?$AAr?$AA?$AA@ 0000000000004498     EfiShellLib:Misc.obj
 0002:00001158       ??_C@_1CM@OIKNIHHI@?$AAW?$AAa?$AAr?$AAn?$AAi?$AAn?$AAg?$AA?5?$AAU?$AAn?$AAk?$AAn?$AAo?$AAw?$AAn?$AA?5?$AAG?$AAl?$AAy?$AAp?$AAh?$AA?$AA@ 00000000000044b8     EfiShellLib:Misc.obj
 0002:00001188       ??_C@_1CO@MFHEGPPN@?$AAW?$AAa?$AAr?$AAn?$AAi?$AAn?$AAg?$AA?5?$AAD?$AAe?$AAl?$AAe?$AAt?$AAe?$AA?5?$AAF?$AAa?$AAi?$AAl?$AAu?$AAr?$AAe?$AA?$AA@ 00000000000044e8     EfiShellLib:Misc.obj
 0002:000011b8       ??_C@_1CM@FKHEOEHO@?$AAW?$AAa?$AAr?$AAn?$AAi?$AAn?$AAg?$AA?5?$AAW?$AAr?$AAi?$AAt?$AAe?$AA?5?$AAF?$AAa?$AAi?$AAl?$AAu?$AAr?$AAe?$AA?$AA@ 0000000000004518     EfiShellLib:Misc.obj
 0002:000011e8       ??_C@_1DC@LAAGMHGB@?$AAW?$AAa?$AAr?$AAn?$AAi?$AAn?$AAg?$AA?5?$AAB?$AAu?$AAf?$AAf?$AAe?$AAr?$AA?5?$AAT?$AAo?$AAo?$AA?5?$AAS?$AAm?$AAa?$AAl?$AAl?$AA?$AA@ 0000000000004548     EfiShellLib:Misc.obj
 0002:00001220       ??_C@_1CK@CPNEFGBF@?$AAI?$AAn?$AAc?$AAo?$AAm?$AAp?$AAa?$AAt?$AAi?$AAb?$AAl?$AAe?$AA?5?$AAV?$AAe?$AAr?$AAs?$AAi?$AAo?$AAn?$AA?$AA@ 0000000000004580     EfiShellLib:Misc.obj
 0002:00001250       ??_C@_1CG@CONBDECJ@?$AAS?$AAe?$AAc?$AAu?$AAr?$AAi?$AAt?$AAy?$AA?5?$AAV?$AAi?$AAo?$AAl?$AAa?$AAt?$AAi?$AAo?$AAn?$AA?$AA@ 00000000000045b0     EfiShellLib:Misc.obj
 0002:00001278       ??_C@_1BE@LNMOCCLF@?$AAC?$AAR?$AAC?$AA?5?$AAE?$AAr?$AAr?$AAo?$AAr?$AA?$AA@ 00000000000045d8     EfiShellLib:Misc.obj
 0002:00001290       ??_C@_1CE@OCFFKMII@?$AAN?$AAo?$AAt?$AA?5?$AAA?$AAv?$AAa?$AAi?$AAl?$AAa?$AAb?$AAl?$AAe?$AA?5?$AAY?$AAe?$AAt?$AA?$AA@ 00000000000045f0     EfiShellLib:Misc.obj
 0002:000012b8       ??_C@_1BK@BJJGPOPI@?$AAU?$AAn?$AAl?$AAo?$AAa?$AAd?$AA?5?$AAI?$AAm?$AAa?$AAg?$AAe?$AA?$AA@ 0000000000004618     EfiShellLib:Misc.obj
 0002:000012d8       ??_C@_1DM@HHKGEKOD@?$AAW?$AAa?$AAr?$AAn?$AAi?$AAn?$AAg?$AA?5?$AAR?$AAe?$AAt?$AAu?$AAr?$AAn?$AA?5?$AAF?$AAr?$AAo?$AAm?$AA?5?$AAL?$AAo?$AAn?$AAg?$AA?5?$AAJ?$AAu?$AAm?$AAp?$AA?$AA@ 0000000000004638     EfiShellLib:Misc.obj
 0002:00001314       ??_C@_15BHOFONJE@?$AA?$CF?$AAX?$AA?$AA@ 0000000000004674     EfiShellLib:Misc.obj
 0002:00001320       ??_C@_1DI@JHANLOAN@?$AA?$CF?$AA0?$AA2?$AAd?$AA?1?$AA?$CF?$AA0?$AA2?$AAd?$AA?1?$AA?$CF?$AA0?$AA2?$AAd?$AA?5?$AA?5?$AA?$CF?$AA0?$AA2?$AAd?$AA?3?$AA?$CF?$AA0?$AA2?$AAd?$AA?$CF?$AAc?$AA?$AA@ 0000000000004680     EfiShellLib:Misc.obj
 0002:00001358       ??_C@_00CNPNBAHC@?$AA@     00000000000046b8     EfiShellLib:Misc.obj
 0002:0000135c       ??_C@_03LKLGDMJI@eng?$AA@  00000000000046bc     EfiShellLib:Misc.obj
 0002:00001360       ??_C@_05JJLPJMLG@en?9US?$AA@ 00000000000046c0     EfiShellLib:Misc.obj
 0002:00001368       ca                         00000000000046c8     EfiShellLib:Misc.obj
 0002:00001380       ??_C@_06OJHGLDPL@?$CInull?$CJ?$AA@ 00000000000046e0     EfiShellLib:IO.obj
 0002:00001388       ??_C@_1O@CEDCILHN@?$AA?$CI?$AAn?$AAu?$AAl?$AAl?$AA?$CJ?$AA?$AA@ 00000000000046e8     EfiShellLib:IO.obj
 0002:000013a0       ??_C@_1EM@PFLICCFE@?$AAP?$AAr?$AAe?$AAs?$AAs?$AA?5?$AAE?$AAN?$AAT?$AAE?$AAR?$AA?5?$AAt?$AAo?$AA?5?$AAc?$AAo?$AAn?$AAt?$AAi?$AAn?$AAu?$AAe?$AA?0?$AA?5?$AA?8?$AAq?$AA?8?$AA?5?$AAt?$AAo?$AA?5@ 0000000000004700     EfiShellLib:IO.obj
 0002:000013ec       ??_C@_15JNBOKNOG@?$AA?$AN?$AA?6?$AA?$AA@ 000000000000474c     EfiShellLib:IO.obj
 0002:00001400       HiiInitialized             0000000000004760     EfiShellLib:Init.obj
 0002:00001408       HiiLibHandle               0000000000004768     EfiShellLib:Init.obj
 0002:00001410       NumStrings                 0000000000004770     EfiShellLib:Init.obj
 0002:00001418       ShellLibInitialized        0000000000004778     EfiShellLib:Data.obj
 0002:00001428       gLibHiiDatabase            0000000000004788     EfiShellLib:HiiSupport.obj
 0002:00001430       gLibHiiString              0000000000004790     EfiShellLib:HiiSupport.obj
 0002:00001438       mHiiProtocolsInitialized   0000000000004798     EfiShellLib:HiiSupport.obj
 0002:00001440       RT                         00000000000047a0     <common>
 0002:00001460       mPrintMode                 00000000000047c0     <common>
 0002:00001498       ST                         00000000000047f8     <common>
 0002:000014a0       SE2                        0000000000004800     <common>
 0002:000014a8       SE                         0000000000004808     <common>
 0002:000014b0       BS                         0000000000004810     <common>
 0002:000014b8       SI                         0000000000004818     <common>
 0002:000014c0       HiiHandle                  0000000000004820     <common>

 entry point at        0001:00000000

 Static symbols

 0002:00001370       Hex                        00000000000046d0     EfiShellLib:Misc.obj
 0002:00001420       mShellEnv                  0000000000004780     EfiShellLib:Misc.obj
 0003:00000000       $pdata$InitializeTouch     0000000000004840     Touch:touch.obj
 0003:0000000c       $pdata$TouchFile           000000000000484c     Touch:touch.obj
 0003:00000018       $pdata$CreateChild         0000000000004858     Touch:touch.obj
 0003:00000024       $pdata$TouchFreeFileArg    0000000000004864     Touch:touch.obj
 0003:00000030       $pdata$LibCheckVarGetFlag  0000000000004870     EfiShellLib:VarCheck.obj
 0003:0000003c       $pdata$LibCheckVariables   000000000000487c     EfiShellLib:VarCheck.obj
 0003:00000048       $pdata$AllocatePool        0000000000004888     EfiShellLib:Mem.obj
 0003:00000054       $pdata$ReallocatePool      0000000000004894     EfiShellLib:Mem.obj
 0003:00000060       $pdata$AllocateZeroPool    00000000000048a0     EfiShellLib:Mem.obj
 0003:0000006c       $pdata$InitializeUnicodeCollationSupportWorker 00000000000048ac     EfiShellLib:Init.obj
 0003:00000078       $pdata$LibInitializeStrings 00000000000048b8     EfiShellLib:Init.obj
 0003:00000084       $pdata$LibInitializeShellApplication 00000000000048c4     EfiShellLib:Init.obj
 0003:00000090       $pdata$LibGetVariableAndSize 00000000000048d0     EfiShellLib:Misc.obj
 0003:0000009c       $pdata$GrowBuffer          00000000000048dc     EfiShellLib:Misc.obj
 0003:000000a8       $pdata$GuidToString        00000000000048e8     EfiShellLib:Misc.obj
 0003:000000b4       $pdata$LibFilterNullArgs   00000000000048f4     EfiShellLib:Misc.obj
 0003:000000c0       $pdata$ValueToString       0000000000004900     EfiShellLib:Misc.obj
 0003:000000cc       $pdata$GetBestLanguage     000000000000490c     EfiShellLib:Misc.obj
 0003:000000d8       $pdata$LibSelectBestLanguage 0000000000004918     EfiShellLib:Misc.obj
 0003:000000e4       $pdata$_SPrint             0000000000004924     EfiShellLib:IO.obj
 0003:000000f0       $pdata$_PoolCatPrint       0000000000004930     EfiShellLib:IO.obj
 0003:000000fc       $pdata$SPrint              000000000000493c     EfiShellLib:IO.obj
 0003:00000108       $pdata$PoolPrint           0000000000004948     EfiShellLib:IO.obj
 0003:00000114       $pdata$PrintToken          0000000000004954     EfiShellLib:IO.obj
 0003:00000120       $pdata$_IPrint             0000000000004960     EfiShellLib:IO.obj
 0003:0000012c       $pdata$PFLUSH              000000000000496c     EfiShellLib:IO.obj
 0003:00000138       $pdata$PSETATTR            0000000000004978     EfiShellLib:IO.obj
 0003:00000144       $pdata$PPUTC               0000000000004984     EfiShellLib:IO.obj
 0003:00000150       $pdata$PITEM               0000000000004990     EfiShellLib:IO.obj
 0003:0000015c       $pdata$_Print              000000000000499c     EfiShellLib:IO.obj
 0003:00000168       $pdata$SetPageBreak        00000000000049a8     EfiShellLib:IO.obj
 0003:00000174       $pdata$IFlushWithPageBreak 00000000000049b4     EfiShellLib:IO.obj
 0003:00000180       $pdata$_PoolPrint          00000000000049c0     EfiShellLib:IO.obj
 0003:0000018c       $pdata$MetaMatch           00000000000049cc     EfiShellLib:Str.obj
 0003:00000198       $pdata$StrDuplicate        00000000000049d8     EfiShellLib:Str.obj
 0003:000001a4       $pdata$LocateHiiProtocols  00000000000049e4     EfiShellLib:HiiSupport.obj
 0003:000001b0       $pdata$PreparePackageList  00000000000049f0     EfiShellLib:HiiSupport.obj
 0003:000001bc       $pdata$LibGetString        00000000000049fc     EfiShellLib:HiiSupport.obj
 0003:000001c8       $pdata$LibLocateHandle     0000000000004a08     EfiShellLib:Handle.obj
 0003:000001d4       $pdata$LibLocateProtocol   0000000000004a14     EfiShellLib:Handle.obj
 0004:00000000       $unwind$InitializeTouch    0000000000004a20     Touch:touch.obj
 0004:00000018       $unwind$TouchFile          0000000000004a38     Touch:touch.obj
 0004:0000002c       $unwind$CreateChild        0000000000004a4c     Touch:touch.obj
 0004:00000040       $unwind$AllocateZeroPool   0000000000004a60     EfiShellLib:Mem.obj
 0004:00000040       $unwind$TouchFreeFileArg   0000000000004a60     Touch:touch.obj
 0004:00000040       $unwind$_SPrint            0000000000004a60     EfiShellLib:IO.obj
 0004:00000048       $unwind$LibCheckVarGetFlag 0000000000004a68     EfiShellLib:VarCheck.obj
 0004:00000048       $unwind$PSETATTR           0000000000004a68     EfiShellLib:IO.obj
 0004:00000048       $unwind$PPUTC              0000000000004a68     EfiShellLib:IO.obj
 0004:00000054       $unwind$LibCheckVariables  0000000000004a74     EfiShellLib:VarCheck.obj
 0004:0000006c       $unwind$LocateHiiProtocols 0000000000004a8c     EfiShellLib:HiiSupport.obj
 0004:0000006c       $unwind$AllocatePool       0000000000004a8c     EfiShellLib:Mem.obj
 0004:00000074       $unwind$GrowBuffer         0000000000004a94     EfiShellLib:Misc.obj
 0004:00000074       $unwind$ReallocatePool     0000000000004a94     EfiShellLib:Mem.obj
 0004:00000088       $unwind$InitializeUnicodeCollationSupportWorker 0000000000004aa8     EfiShellLib:Init.obj
 0004:0000009c       $unwind$LibInitializeStrings 0000000000004abc     EfiShellLib:Init.obj
 0004:000000a8       $unwind$LibInitializeShellApplication 0000000000004ac8     EfiShellLib:Init.obj
 0004:000000b8       $unwind$LibGetVariableAndSize 0000000000004ad8     EfiShellLib:Misc.obj
 0004:000000c8       $unwind$GuidToString       0000000000004ae8     EfiShellLib:Misc.obj
 0004:000000e0       $unwind$LibFilterNullArgs  0000000000004b00     EfiShellLib:Misc.obj
 0004:000000fc       $unwind$ValueToString      0000000000004b1c     EfiShellLib:Misc.obj
 0004:00000104       $unwind$GetBestLanguage    0000000000004b24     EfiShellLib:Misc.obj
 0004:00000114       $unwind$LibSelectBestLanguage 0000000000004b34     EfiShellLib:Misc.obj
 0004:00000124       $unwind$_PoolCatPrint      0000000000004b44     EfiShellLib:IO.obj
 0004:0000012c       $unwind$SPrint             0000000000004b4c     EfiShellLib:IO.obj
 0004:00000138       $unwind$PoolPrint          0000000000004b58     EfiShellLib:IO.obj
 0004:00000140       $unwind$PrintToken         0000000000004b60     EfiShellLib:IO.obj
 0004:0000014c       $unwind$_IPrint            0000000000004b6c     EfiShellLib:IO.obj
 0004:00000158       $unwind$PFLUSH             0000000000004b78     EfiShellLib:IO.obj
 0004:00000164       $unwind$PITEM              0000000000004b84     EfiShellLib:IO.obj
 0004:0000017c       $unwind$_Print             0000000000004b9c     EfiShellLib:IO.obj
 0004:0000019c       $unwind$SetPageBreak       0000000000004bbc     EfiShellLib:IO.obj
 0004:000001ac       $unwind$IFlushWithPageBreak 0000000000004bcc     EfiShellLib:IO.obj
 0004:000001c4       $unwind$_PoolPrint         0000000000004be4     EfiShellLib:IO.obj
 0004:000001c4       $unwind$StrDuplicate       0000000000004be4     EfiShellLib:Str.obj
 0004:000001d4       $unwind$MetaMatch          0000000000004bf4     EfiShellLib:Str.obj
 0004:000001e4       $unwind$PreparePackageList 0000000000004c04     EfiShellLib:HiiSupport.obj
 0004:000001f8       $unwind$LibGetString       0000000000004c18     EfiShellLib:HiiSupport.obj
 0004:00000214       $unwind$LibLocateHandle    0000000000004c34     EfiShellLib:Handle.obj
 0004:00000228       $unwind$LibLocateProtocol  0000000000004c48     EfiShellLib:Handle.obj
