 Dmem

 Timestamp is 5bc88634 (Thu Oct 18 21:10:12 2018)

 Preferred load address is 0000000000000000

 Start         Length     Name                   Class
 0001:00000000 00004670H .text$mn                CODE
 0002:00000000 00003190H .data                   DATA
 0002:00003190 0000103cH .rdata                  DATA
 0002:000041e0 000000c8H .bss                    DATA
 0003:00000000 000002e8H .pdata                  DATA
 0004:00000000 000002ccH .xdata                  DATA

  Address         Publics by Value              Rva+Base               Lib:Object

 0000:00000000       __guard_fids_count         0000000000000000     <absolute>
 0000:00000000       __guard_flags              0000000000000000     <absolute>
 0000:00000000       __guard_fids_table         0000000000000000     <absolute>
 0001:00000000       DumpMem                    00000000000002a0 f   Dmem:mem.obj
 0001:0000012c       DmemMainProcOld            00000000000003cc f   Dmem:MemCommonPart.obj
 0001:0000045c       DmemMainProc               00000000000006fc f   Dmem:MemCommonPart.obj
 0001:0000077c       EFITableHeaderPrint        0000000000000a1c f   Dmem:efidump.obj
 0001:00000868       DumpGenericHeader          0000000000000b08 f   Dmem:efidump.obj
 0001:0000089c       DumpPartition              0000000000000b3c f   Dmem:efidump.obj
 0001:00000914       DumpSystemTable            0000000000000bb4 f   Dmem:efidump.obj
 0001:00000b2c       InitializeUnicodeCollationSupportWorker 0000000000000dcc f   EfiShellLib:Init.obj
 0001:00000c28       LibInitializeStrings       0000000000000ec8 f   EfiShellLib:Init.obj
 0001:00000d18       LibInitializeShellApplication 0000000000000fb8 f   EfiShellLib:Init.obj
 0001:00000f80       LibGetVariableAndSize      0000000000001220 f   EfiShellLib:Misc.obj
 0001:0000100c       GrowBuffer                 00000000000012ac f   EfiShellLib:Misc.obj
 0001:000010ac       GuidToString               000000000000134c f   EfiShellLib:Misc.obj
 0001:000011bc       StatusToString             000000000000145c f   EfiShellLib:Misc.obj
 0001:0000155c       LibGetSystemConfigurationTable 00000000000017fc f   EfiShellLib:Misc.obj
 0001:000015f0       ValueToString              0000000000001890 f   EfiShellLib:Misc.obj
 0001:000016d8       DumpHex                    0000000000001978 f   EfiShellLib:Misc.obj
 0001:000017f8       GetBestLanguage            0000000000001a98 f   EfiShellLib:Misc.obj
 0001:00001954       LibSelectBestLanguage      0000000000001bf4 f   EfiShellLib:Misc.obj
 0001:000019e8       StrTrim                    0000000000001c88 f   EfiShellLib:Str.obj
 0001:00001a98       Xtoi                       0000000000001d38 f   EfiShellLib:Str.obj
 0001:00001b4c       LibStubMetaiMatch          0000000000001dec f   EfiShellLib:Str.obj
 0001:00001b58       MetaMatch                  0000000000001df8 f   EfiShellLib:Str.obj
 0001:00001d70       LibStubStriCmp             0000000000002010 f   EfiShellLib:Str.obj
 0001:00001df4       LibStubStrUpr              0000000000002094 f   EfiShellLib:Str.obj
 0001:00001e14       LibStubStrLwr              00000000000020b4 f   EfiShellLib:Str.obj
 0001:00001e34       StrToUIntegerBase          00000000000020d4 f   EfiShellLib:Str.obj
 0001:00001f58       _SPrint                    00000000000021f8 f   EfiShellLib:IO.obj
 0001:00001fd0       _PoolCatPrint              0000000000002270 f   EfiShellLib:IO.obj
 0001:0000201c       SPrint                     00000000000022bc f   EfiShellLib:IO.obj
 0001:00002090       Print                      0000000000002330 f   EfiShellLib:IO.obj
 0001:000020c8       PrintToken                 0000000000002368 f   EfiShellLib:IO.obj
 0001:00002194       CatPrint                   0000000000002434 f   EfiShellLib:IO.obj
 0001:000021d0       _IPrint                    0000000000002470 f   EfiShellLib:IO.obj
 0001:00002284       PFLUSH                     0000000000002524 f   EfiShellLib:IO.obj
 0001:00002344       PSETATTR                   00000000000025e4 f   EfiShellLib:IO.obj
 0001:00002388       PPUTC                      0000000000002628 f   EfiShellLib:IO.obj
 0001:00002404       PITEM                      00000000000026a4 f   EfiShellLib:IO.obj
 0001:00002534       _Print                     00000000000027d4 f   EfiShellLib:IO.obj
 0001:00002b4c       SetPageBreak               0000000000002dec f   EfiShellLib:IO.obj
 0001:00002c60       IFlushWithPageBreak        0000000000002f00 f   EfiShellLib:IO.obj
 0001:00002da4       _PoolPrint                 0000000000003044 f   EfiShellLib:IO.obj
 0001:00002e28       LibCheckVarGetFlag         00000000000030c8 f   EfiShellLib:VarCheck.obj
 0001:00002e6c       iCompareSetFlag            000000000000310c f   EfiShellLib:VarCheck.obj
 0001:00002ec8       LibCheckVariables          0000000000003168 f   EfiShellLib:VarCheck.obj
 0001:00003214       CopyMem                    00000000000034b4 f   EfiShellLib:Mem.obj
 0001:00003258       AllocatePool               00000000000034f8 f   EfiShellLib:Mem.obj
 0001:0000328c       ReallocatePool             000000000000352c f   EfiShellLib:Mem.obj
 0001:00003300       AllocateZeroPool           00000000000035a0 f   EfiShellLib:Mem.obj
 0001:0000332c       UnpackDevicePath           00000000000035cc f   EfiShellLib:DPath.obj
 0001:00003418       _DevPathPci                00000000000036b8 f   EfiShellLib:DPath.obj
 0001:00003430       _DevPathPccard             00000000000036d0 f   EfiShellLib:DPath.obj
 0001:00003444       _DevPathMemMap             00000000000036e4 f   EfiShellLib:DPath.obj
 0001:0000346c       _DevPathController         000000000000370c f   EfiShellLib:DPath.obj
 0001:0000347c       _DevPathVendor             000000000000371c f   EfiShellLib:DPath.obj
 0001:000037f8       _DevPathAcpi               0000000000003a98 f   EfiShellLib:DPath.obj
 0001:00003824       _DevPathExtendedAcpi       0000000000003ac4 f   EfiShellLib:DPath.obj
 0001:0000396c       _DevPathAdrAcpi            0000000000003c0c f   EfiShellLib:DPath.obj
 0001:000039f8       _DevPathAtapi              0000000000003c98 f   EfiShellLib:DPath.obj
 0001:00003a30       _DevPathScsi               0000000000003cd0 f   EfiShellLib:DPath.obj
 0001:00003a48       _DevPathFibre              0000000000003ce8 f   EfiShellLib:DPath.obj
 0001:00003a5c       _DevPath1394               0000000000003cfc f   EfiShellLib:DPath.obj
 0001:00003a6c       _DevPathUsb                0000000000003d0c f   EfiShellLib:DPath.obj
 0001:00003a84       _DevPathUsbWWID            0000000000003d24 f   EfiShellLib:DPath.obj
 0001:00003aac       _DevPathLogicalUnit        0000000000003d4c f   EfiShellLib:DPath.obj
 0001:00003ac0       _DevPathUsbClass           0000000000003d60 f   EfiShellLib:DPath.obj
 0001:00003afc       _DevPathSata               0000000000003d9c f   EfiShellLib:DPath.obj
 0001:00003b44       _DevPathI2O                0000000000003de4 f   EfiShellLib:DPath.obj
 0001:00003b54       _DevPathMacAddr            0000000000003df4 f   EfiShellLib:DPath.obj
 0001:00003bd0       _DevPathIPv4               0000000000003e70 f   EfiShellLib:DPath.obj
 0001:00003c0c       _DevPathIPv6               0000000000003eac f   EfiShellLib:DPath.obj
 0001:00003d00       _DevPathInfiniBand         0000000000003fa0 f   EfiShellLib:DPath.obj
 0001:00003d38       _DevPathUart               0000000000003fd8 f   EfiShellLib:DPath.obj
 0001:00003e2c       _DevPathiSCSI              00000000000040cc f   EfiShellLib:DPath.obj
 0001:00003f24       _DevPathHardDrive          00000000000041c4 f   EfiShellLib:DPath.obj
 0001:00003f84       _DevPathCDROM              0000000000004224 f   EfiShellLib:DPath.obj
 0001:00003f94       _DevPathFilePath           0000000000004234 f   EfiShellLib:DPath.obj
 0001:0000401c       _DevPathMediaProtocol      00000000000042bc f   EfiShellLib:DPath.obj
 0001:0000402c       _DevPathFvFilePath         00000000000042cc f   EfiShellLib:DPath.obj
 0001:0000403c       _DevPathRelativeOffsetRange 00000000000042dc f   EfiShellLib:DPath.obj
 0001:00004050       _DevPathBssBss             00000000000042f0 f   EfiShellLib:DPath.obj
 0001:000040d0       _DevPathEndInstance        0000000000004370 f   EfiShellLib:DPath.obj
 0001:000040dc       _DevPathNodeUnknown        000000000000437c f   EfiShellLib:DPath.obj
 0001:000040e8       _DevPathFvPath             0000000000004388 f   EfiShellLib:DPath.obj
 0001:000040f8       LibDevicePathToStr         0000000000004398 f   EfiShellLib:DPath.obj
 0001:00004258       LocateHiiProtocols         00000000000044f8 f   EfiShellLib:HiiSupport.obj
 0001:000042a4       PreparePackageList         0000000000004544 f   EfiShellLib:HiiSupport.obj
 0001:00004398       LibGetString               0000000000004638 f   EfiShellLib:HiiSupport.obj
 0001:00004528       LibLocateHandle            00000000000047c8 f   EfiShellLib:Handle.obj
 0001:000045cc       LibLocateProtocol          000000000000486c f   EfiShellLib:Handle.obj
 0002:00000000       EfiDmemGuid                0000000000004920     Dmem:MemCommonPart.obj
 0002:00000010       DmemCheckList              0000000000004930     Dmem:MemCommonPart.obj
 0002:00000070       DmemStrings                0000000000004990     Dmem:AutoGen.obj
 0002:00002d20       DmemTableHeader            0000000000007640     Dmem:efidump.obj
 0002:00002d98       SESGuid                    00000000000076b8     EfiShellLib:Init.obj
 0002:00002da8       PoolAllocationType         00000000000076c8     EfiShellLib:Data.obj
 0002:00002db0       ShellEnvProtocol           00000000000076d0     EfiShellLib:Data.obj
 0002:00002dc0       LibStubUnicodeInterface    00000000000076e0     EfiShellLib:Data.obj
 0002:00002df8       UnicodeInterface           0000000000007718     EfiShellLib:Data.obj
 0002:00002e00       ShellInterfaceProtocol     0000000000007720     EfiShellLib:Misc.obj
 0002:00002e10       mEfiDevicePathMessagingUartFlowControlGuid 0000000000007730     EfiShellLib:DPath.obj
 0002:00002e20       DevPathTable               0000000000007740     EfiShellLib:DPath.obj
 0002:00003060       mEfiDevicePathMessagingSASGuid 0000000000007980     EfiShellLib:DPath.obj
 0002:00003070       gEfiPciRootBridgeIoProtocolGuid 0000000000007990     EfiProtocolLib:PciRootBridgeIo.obj
 0002:00003080       gEfiDevicePathProtocolGuid 00000000000079a0     EfiProtocolLib:DevicePath.obj
 0002:00003090       gEfiLoadedImageProtocolGuid 00000000000079b0     EfiProtocolLib:LoadedImage.obj
 0002:000030a0       gEfiUnicodeCollation2ProtocolGuid 00000000000079c0     EfiProtocolLib:UnicodeCollation2.obj
 0002:000030b0       gEfiUnicodeCollationProtocolGuid 00000000000079d0     EfiProtocolLib:UnicodeCollation.obj
 0002:000030c0       gEfiDevicePathToTextProtocolGuid 00000000000079e0     EfiProtocolLib:DevicePathToText.obj
 0002:000030d0       gEfiDebugPortProtocolGuid  00000000000079f0     EfiProtocolLib:DebugPort.obj
 0002:000030e0       gEfiHiiStringProtocolGuid  0000000000007a00     EfiProtocolLib:HiiString.obj
 0002:000030f0       gEfiHiiDatabaseProtocolGuid 0000000000007a10     EfiProtocolLib:HiiDatabase.obj
 0002:00003100       gEfiAcpiTableGuid          0000000000007a20     EfiGuidLib:Acpi.obj
 0002:00003110       gEfiAcpi20TableGuid        0000000000007a30     EfiGuidLib:Acpi.obj
 0002:00003120       gEfiMpsTableGuid           0000000000007a40     EfiGuidLib:Mps.obj
 0002:00003130       gEfiSmbiosTableGuid        0000000000007a50     EfiGuidLib:SmBios.obj
 0002:00003140       gEfiGlobalVariableGuid     0000000000007a60     EfiGuidLib:GlobalVariable.obj
 0002:00003150       gEfiVTUTF8Guid             0000000000007a70     EfiGuidLib:PcAnsi.obj
 0002:00003160       gEfiVT100Guid              0000000000007a80     EfiGuidLib:PcAnsi.obj
 0002:00003170       gEfiVT100PlusGuid          0000000000007a90     EfiGuidLib:PcAnsi.obj
 0002:00003180       gEfiPcAnsiGuid             0000000000007aa0     EfiGuidLib:PcAnsi.obj
 0002:00003190       ??_C@_19EILFCCEC@?$AA1?$AA?4?$AA1?$AA0?$AA?$AA@ 0000000000007ab0     Dmem:mem.obj
 0002:000031a0       ??_C@_19BOOCDHNO@?$AAd?$AAm?$AAe?$AAm?$AA?$AA@ 0000000000007ac0     Dmem:mem.obj
 0002:000031b0       ??_C@_1M@GGGENIPJ@?$AA1?$AA?4?$AA1?$AA?4?$AA1?$AA?$AA@ 0000000000007ad0     Dmem:mem.obj
 0002:000031c0       ??_C@_1M@DAEIKLGF@?$AA?9?$AAM?$AAM?$AAI?$AAO?$AA?$AA@ 0000000000007ae0     Dmem:MemCommonPart.obj
 0002:000031cc       ??_C@_15MEBCNIAC@?$AA?9?$AAB?$AA?$AA@ 0000000000007aec     Dmem:MemCommonPart.obj
 0002:000031d4       ??_C@_15FNEHKAED@?$AA?9?$AA?$DP?$AA?$AA@ 0000000000007af4     Dmem:MemCommonPart.obj
 0002:000031e0       ??_C@_1M@NDGNODHJ@?$AA?$DL?$AAM?$AAM?$AAI?$AAO?$AA?$AA@ 0000000000007b00     Dmem:MemCommonPart.obj
 0002:000031ec       ??_C@_15GECAHHDM@?$AA?9?$AAb?$AA?$AA@ 0000000000007b0c     Dmem:MemCommonPart.obj
 0002:000031f8       ??_C@_1CA@DFHAODOI@?$AAP?$AAc?$AAi?$AAR?$AAo?$AAo?$AAt?$AAB?$AAr?$AAi?$AAd?$AAg?$AAe?$AAI?$AAo?$AA?$AA@ 0000000000007b18     Dmem:MemCommonPart.obj
 0002:00003218       ??_C@_13LBAGMAIH@?$AA?6?$AA?$AA@ 0000000000007b38     Dmem:efidump.obj
 0002:00003220       ??_C@_1BE@CBCOEOIA@?$AAP?$AAa?$AAr?$AAt?$AAi?$AAt?$AAi?$AAo?$AAn?$AA?$AA@ 0000000000007b40     Dmem:efidump.obj
 0002:00003238       ??_C@_1O@GINMMDNN@?$AAS?$AAy?$AAs?$AAt?$AAe?$AAm?$AA?$AA@ 0000000000007b58     Dmem:efidump.obj
 0002:00003248       ??_C@_1BM@OOPJGICC@?$AAB?$AAo?$AAo?$AAt?$AA?5?$AAS?$AAe?$AAr?$AAv?$AAi?$AAc?$AAe?$AAs?$AA?$AA@ 0000000000007b68     Dmem:efidump.obj
 0002:00003268       ??_C@_1CC@DPAHCAMA@?$AAR?$AAu?$AAn?$AAt?$AAi?$AAm?$AAe?$AA?5?$AAS?$AAe?$AAr?$AAv?$AAi?$AAc?$AAe?$AAs?$AA?$AA@ 0000000000007b88     Dmem:efidump.obj
 0002:0000328c       ??_C@_11LOCGONAA@?$AA?$AA@ 0000000000007bac     Dmem:efidump.obj
 0002:0000328e       ??_C@_00CNPNBAHC@?$AA@     0000000000007bae     Dmem:efidump.obj
 0002:00003290       ??_C@_04ECGLBLOI@?9?9?9?9?$AA@ 0000000000007bb0     Dmem:efidump.obj
 0002:00003298       ??_C@_03JFAFOAIM@LBA?$AA@  0000000000007bb8     Dmem:efidump.obj
 0002:000032a0       ??_C@_07EODJIPPN@Address?$AA@ 0000000000007bc0     Dmem:efidump.obj
 0002:000032a8       ??_C@_19BALNHBBC@?$AAL?$AAa?$AAn?$AAg?$AA?$AA@ 0000000000007bc8     EfiShellLib:Misc.obj
 0002:000032b8       ??_C@_1BK@GGGENMOA@?$AAP?$AAl?$AAa?$AAt?$AAf?$AAo?$AAr?$AAm?$AAL?$AAa?$AAn?$AAg?$AA?$AA@ 0000000000007bd8     EfiShellLib:Misc.obj
 0002:000032d4       ??_C@_15GANGMFKL@?$AA?$CF?$AAs?$AA?$AA@ 0000000000007bf4     EfiShellLib:Misc.obj
 0002:000032e0       ??_C@_1GC@MIJCAPDC@?$AA?$CF?$AA0?$AA8?$AAx?$AA?9?$AA?$CF?$AA0?$AA4?$AAx?$AA?9?$AA?$CF?$AA0?$AA4?$AAx?$AA?9?$AA?$CF?$AA0?$AA2?$AAx?$AA?$CF?$AA0?$AA2?$AAx?$AA?9?$AA?$CF?$AA0?$AA2?$AAx?$AA?$CF?$AA0?$AA2?$AAx@ 0000000000007c00     EfiShellLib:Misc.obj
 0002:00003348       ??_C@_1BA@JFDCMKFN@?$AAS?$AAu?$AAc?$AAc?$AAe?$AAs?$AAs?$AA?$AA@ 0000000000007c68     EfiShellLib:Misc.obj
 0002:00003358       ??_C@_1BG@IPPBEJLN@?$AAL?$AAo?$AAa?$AAd?$AA?5?$AAE?$AAr?$AAr?$AAo?$AAr?$AA?$AA@ 0000000000007c78     EfiShellLib:Misc.obj
 0002:00003370       ??_C@_1CE@FAJJAJHO@?$AAI?$AAn?$AAv?$AAa?$AAl?$AAi?$AAd?$AA?5?$AAP?$AAa?$AAr?$AAa?$AAm?$AAe?$AAt?$AAe?$AAr?$AA?$AA@ 0000000000007c90     EfiShellLib:Misc.obj
 0002:00003398       ??_C@_1BI@HACEKCKB@?$AAU?$AAn?$AAs?$AAu?$AAp?$AAp?$AAo?$AAr?$AAt?$AAe?$AAd?$AA?$AA@ 0000000000007cb8     EfiShellLib:Misc.obj
 0002:000033b0       ??_C@_1CA@MKNIKBGN@?$AAB?$AAa?$AAd?$AA?5?$AAB?$AAu?$AAf?$AAf?$AAe?$AAr?$AA?5?$AAS?$AAi?$AAz?$AAe?$AA?$AA@ 0000000000007cd0     EfiShellLib:Misc.obj
 0002:000033d0       ??_C@_1CC@GADLJCKI@?$AAB?$AAu?$AAf?$AAf?$AAe?$AAr?$AA?5?$AAT?$AAo?$AAo?$AA?5?$AAS?$AAm?$AAa?$AAl?$AAl?$AA?$AA@ 0000000000007cf0     EfiShellLib:Misc.obj
 0002:000033f8       ??_C@_1BE@HFDAGNKF@?$AAN?$AAo?$AAt?$AA?5?$AAR?$AAe?$AAa?$AAd?$AAy?$AA?$AA@ 0000000000007d18     EfiShellLib:Misc.obj
 0002:00003410       ??_C@_1BK@MPLHBIOA@?$AAD?$AAe?$AAv?$AAi?$AAc?$AAe?$AA?5?$AAE?$AAr?$AAr?$AAo?$AAr?$AA?$AA@ 0000000000007d30     EfiShellLib:Misc.obj
 0002:00003430       ??_C@_1CA@PAGBHICH@?$AAW?$AAr?$AAi?$AAt?$AAe?$AA?5?$AAP?$AAr?$AAo?$AAt?$AAe?$AAc?$AAt?$AAe?$AAd?$AA?$AA@ 0000000000007d50     EfiShellLib:Misc.obj
 0002:00003450       ??_C@_1CC@JDEEHPBA@?$AAO?$AAu?$AAt?$AA?5?$AAo?$AAf?$AA?5?$AAR?$AAe?$AAs?$AAo?$AAu?$AAr?$AAc?$AAe?$AAs?$AA?$AA@ 0000000000007d70     EfiShellLib:Misc.obj
 0002:00003478       ??_C@_1CC@IIFGLPAC@?$AAV?$AAo?$AAl?$AAu?$AAm?$AAe?$AA?5?$AAC?$AAo?$AAr?$AAr?$AAu?$AAp?$AAt?$AAe?$AAd?$AA?$AA@ 0000000000007d98     EfiShellLib:Misc.obj
 0002:000034a0       ??_C@_1BI@KDMJOJPB@?$AAV?$AAo?$AAl?$AAu?$AAm?$AAe?$AA?5?$AAF?$AAu?$AAl?$AAl?$AA?$AA@ 0000000000007dc0     EfiShellLib:Misc.obj
 0002:000034b8       ??_C@_1BC@CAEJNJKB@?$AAN?$AAo?$AA?5?$AAM?$AAe?$AAd?$AAi?$AAa?$AA?$AA@ 0000000000007dd8     EfiShellLib:Misc.obj
 0002:000034d0       ??_C@_1BM@CGJAEDJP@?$AAM?$AAe?$AAd?$AAi?$AAa?$AA?5?$AAC?$AAh?$AAa?$AAn?$AAg?$AAe?$AAd?$AA?$AA@ 0000000000007df0     EfiShellLib:Misc.obj
 0002:000034f0       ??_C@_1BE@JGBFLIBK@?$AAN?$AAo?$AAt?$AA?5?$AAF?$AAo?$AAu?$AAn?$AAd?$AA?$AA@ 0000000000007e10     EfiShellLib:Misc.obj
 0002:00003508       ??_C@_1BM@HDPINFLL@?$AAA?$AAc?$AAc?$AAe?$AAs?$AAs?$AA?5?$AAD?$AAe?$AAn?$AAi?$AAe?$AAd?$AA?$AA@ 0000000000007e28     EfiShellLib:Misc.obj
 0002:00003528       ??_C@_1BI@JIAAMNOB@?$AAN?$AAo?$AA?5?$AAR?$AAe?$AAs?$AAp?$AAo?$AAn?$AAs?$AAe?$AA?$AA@ 0000000000007e48     EfiShellLib:Misc.obj
 0002:00003540       ??_C@_1BG@OHLJONME@?$AAN?$AAo?$AA?5?$AAM?$AAa?$AAp?$AAp?$AAi?$AAn?$AAg?$AA?$AA@ 0000000000007e60     EfiShellLib:Misc.obj
 0002:00003558       ??_C@_1BC@GINMNENH@?$AAT?$AAi?$AAm?$AAe?$AA?5?$AAO?$AAu?$AAt?$AA?$AA@ 0000000000007e78     EfiShellLib:Misc.obj
 0002:00003570       ??_C@_1BI@MNIOFEEM@?$AAN?$AAo?$AAt?$AA?5?$AAS?$AAt?$AAa?$AAr?$AAt?$AAe?$AAd?$AA?$AA@ 0000000000007e90     EfiShellLib:Misc.obj
 0002:00003588       ??_C@_1CA@CNMNDJCM@?$AAA?$AAl?$AAr?$AAe?$AAa?$AAd?$AAy?$AA?5?$AAS?$AAt?$AAa?$AAr?$AAt?$AAe?$AAd?$AA?$AA@ 0000000000007ea8     EfiShellLib:Misc.obj
 0002:000035a8       ??_C@_1BA@JCPMFPEO@?$AAA?$AAb?$AAo?$AAr?$AAt?$AAe?$AAd?$AA?$AA@ 0000000000007ec8     EfiShellLib:Misc.obj
 0002:000035b8       ??_C@_1BG@GJCEBLMD@?$AAI?$AAC?$AAM?$AAP?$AA?5?$AAE?$AAr?$AAr?$AAo?$AAr?$AA?$AA@ 0000000000007ed8     EfiShellLib:Misc.obj
 0002:000035d0       ??_C@_1BG@MPDDBEKI@?$AAT?$AAF?$AAT?$AAP?$AA?5?$AAE?$AAr?$AAr?$AAo?$AAr?$AA?$AA@ 0000000000007ef0     EfiShellLib:Misc.obj
 0002:000035e8       ??_C@_1BO@MGICIKC@?$AAP?$AAr?$AAo?$AAt?$AAo?$AAc?$AAo?$AAl?$AA?5?$AAE?$AAr?$AAr?$AAo?$AAr?$AA?$AA@ 0000000000007f08     EfiShellLib:Misc.obj
 0002:00003608       ??_C@_1CM@OIKNIHHI@?$AAW?$AAa?$AAr?$AAn?$AAi?$AAn?$AAg?$AA?5?$AAU?$AAn?$AAk?$AAn?$AAo?$AAw?$AAn?$AA?5?$AAG?$AAl?$AAy?$AAp?$AAh?$AA?$AA@ 0000000000007f28     EfiShellLib:Misc.obj
 0002:00003638       ??_C@_1CO@MFHEGPPN@?$AAW?$AAa?$AAr?$AAn?$AAi?$AAn?$AAg?$AA?5?$AAD?$AAe?$AAl?$AAe?$AAt?$AAe?$AA?5?$AAF?$AAa?$AAi?$AAl?$AAu?$AAr?$AAe?$AA?$AA@ 0000000000007f58     EfiShellLib:Misc.obj
 0002:00003668       ??_C@_1CM@FKHEOEHO@?$AAW?$AAa?$AAr?$AAn?$AAi?$AAn?$AAg?$AA?5?$AAW?$AAr?$AAi?$AAt?$AAe?$AA?5?$AAF?$AAa?$AAi?$AAl?$AAu?$AAr?$AAe?$AA?$AA@ 0000000000007f88     EfiShellLib:Misc.obj
 0002:00003698       ??_C@_1DC@LAAGMHGB@?$AAW?$AAa?$AAr?$AAn?$AAi?$AAn?$AAg?$AA?5?$AAB?$AAu?$AAf?$AAf?$AAe?$AAr?$AA?5?$AAT?$AAo?$AAo?$AA?5?$AAS?$AAm?$AAa?$AAl?$AAl?$AA?$AA@ 0000000000007fb8     EfiShellLib:Misc.obj
 0002:000036d0       ??_C@_1CK@CPNEFGBF@?$AAI?$AAn?$AAc?$AAo?$AAm?$AAp?$AAa?$AAt?$AAi?$AAb?$AAl?$AAe?$AA?5?$AAV?$AAe?$AAr?$AAs?$AAi?$AAo?$AAn?$AA?$AA@ 0000000000007ff0     EfiShellLib:Misc.obj
 0002:00003700       ??_C@_1CG@CONBDECJ@?$AAS?$AAe?$AAc?$AAu?$AAr?$AAi?$AAt?$AAy?$AA?5?$AAV?$AAi?$AAo?$AAl?$AAa?$AAt?$AAi?$AAo?$AAn?$AA?$AA@ 0000000000008020     EfiShellLib:Misc.obj
 0002:00003728       ??_C@_1BE@LNMOCCLF@?$AAC?$AAR?$AAC?$AA?5?$AAE?$AAr?$AAr?$AAo?$AAr?$AA?$AA@ 0000000000008048     EfiShellLib:Misc.obj
 0002:00003740       ??_C@_1CE@OCFFKMII@?$AAN?$AAo?$AAt?$AA?5?$AAA?$AAv?$AAa?$AAi?$AAl?$AAa?$AAb?$AAl?$AAe?$AA?5?$AAY?$AAe?$AAt?$AA?$AA@ 0000000000008060     EfiShellLib:Misc.obj
 0002:00003768       ??_C@_1BK@BJJGPOPI@?$AAU?$AAn?$AAl?$AAo?$AAa?$AAd?$AA?5?$AAI?$AAm?$AAa?$AAg?$AAe?$AA?$AA@ 0000000000008088     EfiShellLib:Misc.obj
 0002:00003788       ??_C@_1DM@HHKGEKOD@?$AAW?$AAa?$AAr?$AAn?$AAi?$AAn?$AAg?$AA?5?$AAR?$AAe?$AAt?$AAu?$AAr?$AAn?$AA?5?$AAF?$AAr?$AAo?$AAm?$AA?5?$AAL?$AAo?$AAn?$AAg?$AA?5?$AAJ?$AAu?$AAm?$AAp?$AA?$AA@ 00000000000080a8     EfiShellLib:Misc.obj
 0002:000037c4       ??_C@_15BHOFONJE@?$AA?$CF?$AAX?$AA?$AA@ 00000000000080e4     EfiShellLib:Misc.obj
 0002:000037d0       ??_C@_1DI@JHANLOAN@?$AA?$CF?$AA0?$AA2?$AAd?$AA?1?$AA?$CF?$AA0?$AA2?$AAd?$AA?1?$AA?$CF?$AA0?$AA2?$AAd?$AA?5?$AA?5?$AA?$CF?$AA0?$AA2?$AAd?$AA?3?$AA?$CF?$AA0?$AA2?$AAd?$AA?$CF?$AAc?$AA?$AA@ 00000000000080f0     EfiShellLib:Misc.obj
 0002:00003808       ??_C@_1CI@HDPFGKPN@?$AA?$CF?$AA?$CK?$AAa?$AA?$CF?$AAX?$AA?3?$AA?5?$AA?$CF?$AA?9?$AA?4?$AA4?$AA8?$AAa?$AA?5?$AA?$CK?$AA?$CF?$AAa?$AA?$CK?$AA?6?$AA?$AA@ 0000000000008128     EfiShellLib:Misc.obj
 0002:00003830       ??_C@_03LKLGDMJI@eng?$AA@  0000000000008150     EfiShellLib:Misc.obj
 0002:00003834       ??_C@_05JJLPJMLG@en?9US?$AA@ 0000000000008154     EfiShellLib:Misc.obj
 0002:0000383c       ca                         000000000000815c     EfiShellLib:Misc.obj
 0002:00003850       ??_C@_06OJHGLDPL@?$CInull?$CJ?$AA@ 0000000000008170     EfiShellLib:IO.obj
 0002:00003858       ??_C@_1O@CEDCILHN@?$AA?$CI?$AAn?$AAu?$AAl?$AAl?$AA?$CJ?$AA?$AA@ 0000000000008178     EfiShellLib:IO.obj
 0002:00003870       ??_C@_1EM@PFLICCFE@?$AAP?$AAr?$AAe?$AAs?$AAs?$AA?5?$AAE?$AAN?$AAT?$AAE?$AAR?$AA?5?$AAt?$AAo?$AA?5?$AAc?$AAo?$AAn?$AAt?$AAi?$AAn?$AAu?$AAe?$AA?0?$AA?5?$AA?8?$AAq?$AA?8?$AA?5?$AAt?$AAo?$AA?5@ 0000000000008190     EfiShellLib:IO.obj
 0002:000038bc       ??_C@_15JNBOKNOG@?$AA?$AN?$AA?6?$AA?$AA@ 00000000000081dc     EfiShellLib:IO.obj
 0002:000038c8       ??_C@_1BG@MDAPCJEC@?$AAP?$AAc?$AAi?$AA?$CI?$AA?$CF?$AAx?$AA?$HM?$AA?$CF?$AAx?$AA?$CJ?$AA?$AA@ 00000000000081e8     EfiShellLib:DPath.obj
 0002:000038e0       ??_C@_1CG@GFOOBBGG@?$AAP?$AAc?$AAc?$AAa?$AAr?$AAd?$AA?$CI?$AAF?$AAu?$AAn?$AAc?$AAt?$AAi?$AAo?$AAn?$AA?$CF?$AAx?$AA?$CJ?$AA?$AA@ 0000000000008200     EfiShellLib:DPath.obj
 0002:00003908       ??_C@_1CG@COPCJGED@?$AAM?$AAe?$AAm?$AAM?$AAa?$AAp?$AA?$CI?$AA?$CF?$AAd?$AA?3?$AA?$CF?$AAl?$AAx?$AA?9?$AA?$CF?$AAl?$AAx?$AA?$CJ?$AA?$AA@ 0000000000008228     EfiShellLib:DPath.obj
 0002:00003930       ??_C@_1BC@EGKCLGKB@?$AAC?$AAt?$AAr?$AAl?$AA?$CI?$AA?$CF?$AAd?$AA?$CJ?$AA?$AA@ 0000000000008250     EfiShellLib:DPath.obj
 0002:00003944       ??_C@_15FLNOEOHI@?$AAH?$AAw?$AA?$AA@ 0000000000008264     EfiShellLib:DPath.obj
 0002:00003950       ??_C@_17DACEHHP@?$AAM?$AAs?$AAg?$AA?$AA@ 0000000000008270     EfiShellLib:DPath.obj
 0002:00003958       ??_C@_1BI@PHHNEBMB@?$AAV?$AAe?$AAn?$AAP?$AAc?$AAA?$AAn?$AAs?$AAi?$AA?$CI?$AA?$CJ?$AA?$AA@ 0000000000008278     EfiShellLib:DPath.obj
 0002:00003970       ??_C@_1BG@IAIKNGNN@?$AAV?$AAe?$AAn?$AAV?$AAt?$AA1?$AA0?$AA0?$AA?$CI?$AA?$CJ?$AA?$AA@ 0000000000008290     EfiShellLib:DPath.obj
 0002:00003988       ??_C@_1BO@COEKAAEN@?$AAV?$AAe?$AAn?$AAV?$AAt?$AA1?$AA0?$AA0?$AAP?$AAl?$AAu?$AAs?$AA?$CI?$AA?$CJ?$AA?$AA@ 00000000000082a8     EfiShellLib:DPath.obj
 0002:000039a8       ??_C@_1BE@EAENEGNC@?$AAV?$AAe?$AAn?$AAU?$AAf?$AAt?$AA8?$AA?$CI?$AA?$CJ?$AA?$AA@ 00000000000082c8     EfiShellLib:DPath.obj
 0002:000039c0       ??_C@_19KLMLHLJG@?$AAN?$AAo?$AAn?$AAe?$AA?$AA@ 00000000000082e0     EfiShellLib:DPath.obj
 0002:000039d0       ??_C@_1CC@FKEHNDLA@?$AAU?$AAa?$AAr?$AAt?$AAF?$AAl?$AAo?$AAw?$AAC?$AAt?$AAr?$AAl?$AA?$CI?$AA?$CF?$AAs?$AA?$CJ?$AA?$AA@ 00000000000082f0     EfiShellLib:DPath.obj
 0002:000039f8       ??_C@_1BC@MAICEHGI@?$AAH?$AAa?$AAr?$AAd?$AAw?$AAa?$AAr?$AAe?$AA?$AA@ 0000000000008318     EfiShellLib:DPath.obj
 0002:00003a10       ??_C@_1BA@NAMMFHHL@?$AAX?$AAo?$AAn?$AAX?$AAo?$AAf?$AAf?$AA?$AA@ 0000000000008330     EfiShellLib:DPath.obj
 0002:00003a20       ??_C@_1CA@GPHPHMMO@?$AAS?$AAA?$AAS?$AA?$CI?$AA?$CF?$AAl?$AAx?$AA?0?$AA?$CF?$AAl?$AAx?$AA?0?$AA?$CF?$AAx?$AA?0?$AA?$AA@ 0000000000008340     EfiShellLib:DPath.obj
 0002:00003a40       ??_C@_1CE@FDCOMKL@?$AAN?$AAo?$AAT?$AAo?$AAp?$AAo?$AAl?$AAo?$AAg?$AAy?$AA?0?$AA0?$AA?0?$AA0?$AA?0?$AA0?$AA?0?$AA?$AA@ 0000000000008360     EfiShellLib:DPath.obj
 0002:00003a68       ??_C@_1BC@EEIMPKHO@?$AAE?$AAx?$AAp?$AAa?$AAn?$AAd?$AAe?$AAd?$AA?$AA@ 0000000000008388     EfiShellLib:DPath.obj
 0002:00003a80       ??_C@_1O@MDCABJAO@?$AAD?$AAi?$AAr?$AAe?$AAc?$AAt?$AA?$AA@ 00000000000083a0     EfiShellLib:DPath.obj
 0002:00003a90       ??_C@_1BC@KMFBFJEN@?$AAE?$AAx?$AAt?$AAe?$AAr?$AAn?$AAa?$AAl?$AA?$AA@ 00000000000083b0     EfiShellLib:DPath.obj
 0002:00003aa8       ??_C@_1BC@FBOHHDN@?$AAI?$AAn?$AAt?$AAe?$AAr?$AAn?$AAa?$AAl?$AA?$AA@ 00000000000083c8     EfiShellLib:DPath.obj
 0002:00003ac0       ??_C@_19BPNGBNAI@?$AAS?$AAA?$AAT?$AAA?$AA?$AA@ 00000000000083e0     EfiShellLib:DPath.obj
 0002:00003ad0       ??_C@_17FMMIKNDG@?$AAS?$AAA?$AAS?$AA?$AA@ 00000000000083f0     EfiShellLib:DPath.obj
 0002:00003ad8       ??_C@_1BE@MLBJKAMN@?$AA?$CF?$AAs?$AA?0?$AA?$CF?$AAs?$AA?0?$AA?$CF?$AAs?$AA?0?$AA?$AA@ 00000000000083f8     EfiShellLib:DPath.obj
 0002:00003aec       ??_C@_15KAKDEJHH@?$AA0?$AA?0?$AA?$AA@ 000000000000840c     EfiShellLib:DPath.obj
 0002:00003af8       ??_C@_17CGNONDIO@?$AA?$CF?$AAx?$AA?0?$AA?$AA@ 0000000000008418     EfiShellLib:DPath.obj
 0002:00003b00       ??_C@_1BC@MFEFEMOI@?$AA0?$AA?0?$AA0?$AA?0?$AA0?$AA?0?$AA0?$AA?0?$AA?$AA@ 0000000000008420     EfiShellLib:DPath.obj
 0002:00003b18       ??_C@_17BBAACDLM@?$AA?$CF?$AAx?$AA?$CJ?$AA?$AA@ 0000000000008438     EfiShellLib:DPath.obj
 0002:00003b20       ??_C@_1BI@IHPCIEPJ@?$AAD?$AAe?$AAb?$AAu?$AAg?$AAP?$AAo?$AAr?$AAt?$AA?$CI?$AA?$CJ?$AA?$AA@ 0000000000008440     EfiShellLib:DPath.obj
 0002:00003b38       ??_C@_1M@OFOICAAP@?$AAM?$AAe?$AAd?$AAi?$AAa?$AA?$AA@ 0000000000008458     EfiShellLib:DPath.obj
 0002:00003b44       ??_C@_13HGPDMIBE@?$AA?$DP?$AA?$AA@ 0000000000008464     EfiShellLib:DPath.obj
 0002:00003b48       ??_C@_1BC@EAAHJKNI@?$AAV?$AAe?$AAn?$AA?$CF?$AAs?$AA?$CI?$AA?$CF?$AAg?$AA?$AA@ 0000000000008468     EfiShellLib:DPath.obj
 0002:00003b5c       ??_C@_13DEFPDAGF@?$AA?0?$AA?$AA@ 000000000000847c     EfiShellLib:DPath.obj
 0002:00003b60       ??_C@_19NHPFCCLF@?$AA?$CF?$AA0?$AA2?$AAx?$AA?$AA@ 0000000000008480     EfiShellLib:DPath.obj
 0002:00003b6c       ??_C@_13DIBMAFH@?$AA?$CJ?$AA?$AA@ 000000000000848c     EfiShellLib:DPath.obj
 0002:00003b70       ??_C@_1CC@FJOIFOI@?$AAA?$AAc?$AAp?$AAi?$AA?$CI?$AAP?$AAN?$AAP?$AA?$CF?$AA0?$AA4?$AAx?$AA?0?$AA?$CF?$AAx?$AA?$CJ?$AA?$AA@ 0000000000008490     EfiShellLib:DPath.obj
 0002:00003b98       ??_C@_1BM@EKDANHGG@?$AAA?$AAc?$AAp?$AAi?$AA?$CI?$AA?$CF?$AA0?$AA8?$AAx?$AA?0?$AA?$CF?$AAx?$AA?$CJ?$AA?$AA@ 00000000000084b8     EfiShellLib:DPath.obj
 0002:00003bb8       ??_C@_1BA@IJNMBDIJ@?$AAA?$AAc?$AAp?$AAi?$AAE?$AAx?$AA?$CI?$AA?$AA@ 00000000000084d8     EfiShellLib:DPath.obj
 0002:00003bc8       ??_C@_1BC@MBEODLHL@?$AAP?$AAN?$AAP?$AA?$CF?$AA0?$AA4?$AAx?$AA?0?$AA?$AA@ 00000000000084e8     EfiShellLib:DPath.obj
 0002:00003be0       ??_C@_1M@DHPGMAKC@?$AA?$CF?$AA0?$AA8?$AAx?$AA?0?$AA?$AA@ 0000000000008500     EfiShellLib:DPath.obj
 0002:00003bf0       ??_C@_17CAHIANN@?$AA?$CF?$AAa?$AA?0?$AA?$AA@ 0000000000008510     EfiShellLib:DPath.obj
 0002:00003bf8       ??_C@_1M@OOAJBNEB@?$AAN?$AAU?$AAL?$AAL?$AA?0?$AA?$AA@ 0000000000008518     EfiShellLib:DPath.obj
 0002:00003c08       ??_C@_17DFNJHAOP@?$AA?$CF?$AAa?$AA?$CJ?$AA?$AA@ 0000000000008528     EfiShellLib:DPath.obj
 0002:00003c10       ??_C@_1M@NJNHONHD@?$AAN?$AAU?$AAL?$AAL?$AA?$CJ?$AA?$AA@ 0000000000008530     EfiShellLib:DPath.obj
 0002:00003c20       ??_C@_1BG@PBGINCJO@?$AAA?$AAc?$AAp?$AAi?$AAA?$AAd?$AAr?$AA?$CI?$AA?$CF?$AAx?$AA?$AA@ 0000000000008540     EfiShellLib:DPath.obj
 0002:00003c38       ??_C@_17MNOOELHJ@?$AA?0?$AA?$CF?$AAx?$AA?$AA@ 0000000000008558     EfiShellLib:DPath.obj
 0002:00003c40       ??_C@_1M@MJNGBMFK@?$AAS?$AAl?$AAa?$AAv?$AAe?$AA?$AA@ 0000000000008560     EfiShellLib:DPath.obj
 0002:00003c50       ??_C@_1O@MHJLHGPK@?$AAM?$AAa?$AAs?$AAt?$AAe?$AAr?$AA?$AA@ 0000000000008570     EfiShellLib:DPath.obj
 0002:00003c60       ??_C@_1BE@BGLPHBHD@?$AAS?$AAe?$AAc?$AAo?$AAn?$AAd?$AAa?$AAr?$AAy?$AA?$AA@ 0000000000008580     EfiShellLib:DPath.obj
 0002:00003c78       ??_C@_1BA@NGCDBIG@?$AAP?$AAr?$AAi?$AAm?$AAa?$AAr?$AAy?$AA?$AA@ 0000000000008598     EfiShellLib:DPath.obj
 0002:00003c88       ??_C@_1BG@MJECHGPM@?$AAA?$AAt?$AAa?$AA?$CI?$AA?$CF?$AAs?$AA?0?$AA?$CF?$AAs?$AA?$CJ?$AA?$AA@ 00000000000085a8     EfiShellLib:DPath.obj
 0002:00003ca0       ??_C@_1CE@KKBOILKH@?$AAS?$AAc?$AAs?$AAi?$AA?$CI?$AAP?$AAu?$AAn?$AA?$CF?$AAx?$AA?0?$AAL?$AAu?$AAn?$AA?$CF?$AAx?$AA?$CJ?$AA?$AA@ 00000000000085c0     EfiShellLib:DPath.obj
 0002:00003cc8       ??_C@_1CK@MODBBGJP@?$AAF?$AAi?$AAb?$AAr?$AAe?$AA?$CI?$AAW?$AAw?$AAn?$AA?$CF?$AAl?$AAx?$AA?0?$AAL?$AAu?$AAn?$AA?$CF?$AAl?$AAx?$AA?$CJ?$AA?$AA@ 00000000000085e8     EfiShellLib:DPath.obj
 0002:00003cf8       ??_C@_1BE@GCELKCLM@?$AA1?$AA3?$AA9?$AA4?$AA?$CI?$AA?$CF?$AAl?$AAx?$AA?$CJ?$AA?$AA@ 0000000000008618     EfiShellLib:DPath.obj
 0002:00003d10       ??_C@_1BG@CMIDIAIB@?$AAU?$AAs?$AAb?$AA?$CI?$AA?$CF?$AAx?$AA?0?$AA?$CF?$AAx?$AA?$CJ?$AA?$AA@ 0000000000008630     EfiShellLib:DPath.obj
 0002:00003d28       ??_C@_1DC@LJNIKMC@?$AAU?$AAs?$AAb?$AAW?$AAw?$AAi?$AAd?$AA?$CI?$AA?$CF?$AAx?$AA?0?$AA?$CF?$AAx?$AA?0?$AA?$CF?$AAx?$AA?0?$AA?$CC?$AAW?$AAW?$AAI?$AAD?$AA?$CC?$AA?$CJ?$AA?$AA@ 0000000000008648     EfiShellLib:DPath.obj
 0002:00003d60       ??_C@_1BC@CDGDIMON@?$AAU?$AAn?$AAi?$AAt?$AA?$CI?$AA?$CF?$AAx?$AA?$CJ?$AA?$AA@ 0000000000008680     EfiShellLib:DPath.obj
 0002:00003d78       ??_C@_1DE@OFNCNPGK@?$AAU?$AAs?$AAb?$AA?5?$AAC?$AAl?$AAa?$AAs?$AAs?$AA?$CI?$AA?$CF?$AAx?$AA?0?$AA?$CF?$AAx?$AA?0?$AA?$CF?$AAx?$AA?0?$AA?$CF?$AAx?$AA?0?$AA?$CF?$AAx?$AA?$CJ?$AA?$AA@ 0000000000008698     EfiShellLib:DPath.obj
 0002:00003db0       ??_C@_1BI@FAMJOHJC@?$AAS?$AAa?$AAt?$AAa?$AA?$CI?$AA?$CF?$AAx?$AA?0?$AA?$CF?$AAx?$AA?$CJ?$AA?$AA@ 00000000000086d0     EfiShellLib:DPath.obj
 0002:00003dc8       ??_C@_1BO@MAFHOLNF@?$AAS?$AAa?$AAt?$AAa?$AA?$CI?$AA?$CF?$AAx?$AA?0?$AA?$CF?$AAx?$AA?0?$AA?$CF?$AAx?$AA?$CJ?$AA?$AA@ 00000000000086e8     EfiShellLib:DPath.obj
 0002:00003de8       ??_C@_1BA@DPFJKEBI@?$AAI?$AA2?$AAO?$AA?$CI?$AA?$CF?$AAx?$AA?$CJ?$AA?$AA@ 0000000000008708     EfiShellLib:DPath.obj
 0002:00003df8       ??_C@_19IAJGEBJJ@?$AAM?$AAa?$AAc?$AA?$CI?$AA?$AA@ 0000000000008718     EfiShellLib:DPath.obj
 0002:00003e08       ??_C@_1CK@LDLKDNE@?$AAI?$AAP?$AAv?$AA4?$AA?$CI?$AA?$CF?$AAd?$AA?4?$AA?$CF?$AAd?$AA?4?$AA?$CF?$AAd?$AA?4?$AA?$CF?$AAd?$AA?3?$AA?$CF?$AAd?$AA?$CJ?$AA?$AA@ 0000000000008728     EfiShellLib:DPath.obj
 0002:00003e40       ??_C@_1JM@HHADDJKA@?$AAI?$AAP?$AAv?$AA6?$AA?$CI?$AA?$CF?$AA0?$AA2?$AAx?$AA?$CF?$AA0?$AA2?$AAx?$AA?3?$AA?$CF?$AA0?$AA2?$AAx?$AA?$CF?$AA0?$AA2?$AAx?$AA?3?$AA?$CF?$AA0?$AA2?$AAx?$AA?$CF?$AA0?$AA2?$AAx?$AA?3@ 0000000000008760     EfiShellLib:DPath.obj
 0002:00003ee0       ??_C@_1DM@EGNCJEEH@?$AAI?$AAn?$AAf?$AAi?$AAn?$AAi?$AAb?$AAa?$AAn?$AAd?$AA?$CI?$AA?$CF?$AAx?$AA?0?$AA?$CF?$AAg?$AA?0?$AA?$CF?$AAl?$AAx?$AA?0?$AA?$CF?$AAl?$AAx?$AA?0?$AA?$CF?$AAl?$AAx?$AA?$CJ?$AA?$AA@ 0000000000008800     EfiShellLib:DPath.obj
 0002:00003f20       ??_C@_1CC@CELNAJLC@?$AAU?$AAa?$AAr?$AAt?$AA?$CI?$AAD?$AAE?$AAF?$AAA?$AAU?$AAL?$AAT?$AA?0?$AA?$CF?$AAc?$AA?0?$AA?$AA@ 0000000000008840     EfiShellLib:DPath.obj
 0002:00003f48       ??_C@_1BK@MEBKLFKJ@?$AAU?$AAa?$AAr?$AAt?$AA?$CI?$AA?$CF?$AAl?$AAd?$AA?0?$AA?$CF?$AAc?$AA?0?$AA?$AA@ 0000000000008868     EfiShellLib:DPath.obj
 0002:00003f64       ??_C@_15DABAAGKA@?$AAD?$AA?0?$AA?$AA@ 0000000000008884     EfiShellLib:DPath.obj
 0002:00003f70       ??_C@_17FCMKBBGO@?$AA?$CF?$AAd?$AA?0?$AA?$AA@ 0000000000008890     EfiShellLib:DPath.obj
 0002:00003f78       ??_C@_15HMOPGJC@?$AAD?$AA?$CJ?$AA?$AA@ 0000000000008898     EfiShellLib:DPath.obj
 0002:00003f80       ??_C@_15FMCBGKOA@?$AA1?$AA?$CJ?$AA?$AA@ 00000000000088a0     EfiShellLib:DPath.obj
 0002:00003f88       ??_C@_19PODFHIEB@?$AA1?$AA?4?$AA5?$AA?$CJ?$AA?$AA@ 00000000000088a8     EfiShellLib:DPath.obj
 0002:00003f94       ??_C@_15NKLFBIEO@?$AA2?$AA?$CJ?$AA?$AA@ 00000000000088b4     EfiShellLib:DPath.obj
 0002:00003f9c       ??_C@_15HEHGDBEE@?$AAx?$AA?$CJ?$AA?$AA@ 00000000000088bc     EfiShellLib:DPath.obj
 0002:00003fa8       ??_C@_1CC@CJFHLJEJ@?$AAi?$AAS?$AAC?$AAS?$AAI?$AA?$CI?$AA?$CF?$AAa?$AA?0?$AA?$CF?$AAx?$AA?0?$AA?$CF?$AAl?$AAx?$AA?0?$AA?$AA@ 00000000000088c8     EfiShellLib:DPath.obj
 0002:00003fd0       ??_C@_1O@HNAACJMJ@?$AAC?$AAR?$AAC?$AA3?$AA2?$AAC?$AA?$AA@ 00000000000088f0     EfiShellLib:DPath.obj
 0002:00003fe0       ??_C@_17EMBJCDEN@?$AA?$CF?$AAs?$AA?0?$AA?$AA@ 0000000000008900     EfiShellLib:DPath.obj
 0002:00003fe8       ??_C@_1BC@PDNIOEEC@?$AAC?$AAH?$AAA?$AAP?$AA_?$AAU?$AAN?$AAI?$AA?$AA@ 0000000000008908     EfiShellLib:DPath.obj
 0002:00004000       ??_C@_1BA@FMEKDPAI@?$AAC?$AAH?$AAA?$AAP?$AA_?$AAB?$AAI?$AA?$AA@ 0000000000008920     EfiShellLib:DPath.obj
 0002:00004010       ??_C@_17JHAKKMK@?$AAT?$AAC?$AAP?$AA?$AA@ 0000000000008930     EfiShellLib:DPath.obj
 0002:00004018       ??_C@_1BC@EFEBCBGB@?$AAr?$AAe?$AAs?$AAe?$AAr?$AAv?$AAe?$AAd?$AA?$AA@ 0000000000008938     EfiShellLib:DPath.obj
 0002:00004030       ??_C@_17HLMHNDHP@?$AA?$CF?$AAs?$AA?$CJ?$AA?$AA@ 0000000000008950     EfiShellLib:DPath.obj
 0002:00004038       ??_C@_1CG@MHDAEBAF@?$AAH?$AAD?$AA?$CI?$AAP?$AAa?$AAr?$AAt?$AA?$CF?$AAd?$AA?0?$AAS?$AAi?$AAg?$AA?$CF?$AA0?$AA8?$AAx?$AA?$CJ?$AA?$AA@ 0000000000008958     EfiShellLib:DPath.obj
 0002:00004060       ??_C@_1CC@NAGEKGEL@?$AAH?$AAD?$AA?$CI?$AAP?$AAa?$AAr?$AAt?$AA?$CF?$AAd?$AA?0?$AAS?$AAi?$AAg?$AA?$CF?$AAg?$AA?$CJ?$AA?$AA@ 0000000000008980     EfiShellLib:DPath.obj
 0002:00004090       ??_C@_1EK@POFNMKP@?$AAH?$AAD?$AA?$CI?$AAP?$AAa?$AAr?$AAt?$AA?$CF?$AAd?$AA?0?$AAM?$AAB?$AAR?$AAT?$AAy?$AAp?$AAe?$AA?$DN?$AA?$CF?$AA0?$AA2?$AAx?$AA?0?$AAS?$AAi?$AAg?$AAT?$AAy?$AAp?$AAe?$AA?$DN?$AA?$CF@ 00000000000089b0     EfiShellLib:DPath.obj
 0002:000040e0       ??_C@_1BO@DEBMLHDP@?$AAC?$AAD?$AAR?$AAO?$AAM?$AA?$CI?$AAE?$AAn?$AAt?$AAr?$AAy?$AA?$CF?$AAx?$AA?$CJ?$AA?$AA@ 0000000000008a00     EfiShellLib:DPath.obj
 0002:00004100       ??_C@_1BE@CJGJAKDA@?$AAM?$AAe?$AAd?$AAi?$AAa?$AA?$CI?$AA?$CF?$AAg?$AA?$CJ?$AA?$AA@ 0000000000008a20     EfiShellLib:DPath.obj
 0002:00004114       ??_C@_15LPKNAFGD@?$AA?$CF?$AAg?$AA?$AA@ 0000000000008a34     EfiShellLib:DPath.obj
 0002:00004120       ??_C@_1CA@CBMMHFH@?$AAO?$AAf?$AAf?$AAs?$AAe?$AAt?$AA?$CI?$AA?$CF?$AAl?$AAx?$AA?0?$AA?$CF?$AAl?$AAx?$AA?$CJ?$AA?$AA@ 0000000000008a40     EfiShellLib:DPath.obj
 0002:00004140       ??_C@_1O@CLMODHEM@?$AAF?$AAl?$AAo?$AAp?$AAp?$AAy?$AA?$AA@ 0000000000008a60     EfiShellLib:DPath.obj
 0002:00004150       ??_C@_1BE@FKOIKKIA@?$AAH?$AAa?$AAr?$AAd?$AAd?$AAr?$AAi?$AAv?$AAe?$AA?$AA@ 0000000000008a70     EfiShellLib:DPath.obj
 0002:00004168       ??_C@_1M@NEPFDHKI@?$AAC?$AAD?$AAR?$AAO?$AAM?$AA?$AA@ 0000000000008a88     EfiShellLib:DPath.obj
 0002:00004178       ??_C@_1O@IJBLAFEH@?$AAP?$AAC?$AAM?$AAC?$AAI?$AAA?$AA?$AA@ 0000000000008a98     EfiShellLib:DPath.obj
 0002:00004188       ??_C@_17JLICJNND@?$AAU?$AAs?$AAb?$AA?$AA@ 0000000000008aa8     EfiShellLib:DPath.obj
 0002:00004190       ??_C@_17BKKOFJGL@?$AAN?$AAe?$AAt?$AA?$AA@ 0000000000008ab0     EfiShellLib:DPath.obj
 0002:00004198       ??_C@_17EAJGCOKH@?$AAB?$AAE?$AAV?$AA?$AA@ 0000000000008ab8     EfiShellLib:DPath.obj
 0002:000041a0       ??_C@_1BG@MFLOOMBA@?$AAB?$AAB?$AAS?$AA?9?$AA?$CF?$AAs?$AA?$CI?$AA?$CF?$AAa?$AA?$CJ?$AA?$AA@ 0000000000008ac0     EfiShellLib:DPath.obj
 0002:000041b8       ??_C@_1O@HJJPOOCL@?$AAF?$AAv?$AA?$CI?$AA?$CF?$AAg?$AA?$CJ?$AA?$AA@ 0000000000008ad8     EfiShellLib:DPath.obj
 0002:000041c8       ??_C@_13CGOKJPIL@?$AA?1?$AA?$AA@ 0000000000008ae8     EfiShellLib:DPath.obj
 0002:000041e0       HiiInitialized             0000000000008b00     EfiShellLib:Init.obj
 0002:000041e8       HiiLibHandle               0000000000008b08     EfiShellLib:Init.obj
 0002:000041f0       NumStrings                 0000000000008b10     EfiShellLib:Init.obj
 0002:000041f8       ShellLibInitialized        0000000000008b18     EfiShellLib:Data.obj
 0002:00004208       gLibHiiDatabase            0000000000008b28     EfiShellLib:HiiSupport.obj
 0002:00004210       gLibHiiString              0000000000008b30     EfiShellLib:HiiSupport.obj
 0002:00004218       mHiiProtocolsInitialized   0000000000008b38     EfiShellLib:HiiSupport.obj
 0002:00004220       RT                         0000000000008b40     <common>
 0002:00004240       mPrintMode                 0000000000008b60     <common>
 0002:00004278       ST                         0000000000008b98     <common>
 0002:00004280       SE2                        0000000000008ba0     <common>
 0002:00004288       SE                         0000000000008ba8     <common>
 0002:00004290       SI                         0000000000008bb0     <common>
 0002:00004298       BS                         0000000000008bb8     <common>
 0002:000042a0       HiiDmemHandle              0000000000008bc0     <common>

 entry point at        0001:00000000

 Static symbols

 0002:00003840       Hex                        0000000000008160     EfiShellLib:Misc.obj
 0002:00004200       mShellEnv                  0000000000008b20     EfiShellLib:Misc.obj
 0003:00000000       $pdata$DumpMem             0000000000008be0     Dmem:mem.obj
 0003:0000000c       $pdata$DmemMainProcOld     0000000000008bec     Dmem:MemCommonPart.obj
 0003:00000018       $pdata$DmemMainProc        0000000000008bf8     Dmem:MemCommonPart.obj
 0003:00000024       $pdata$EFITableHeaderPrint 0000000000008c04     Dmem:efidump.obj
 0003:00000030       $pdata$DumpGenericHeader   0000000000008c10     Dmem:efidump.obj
 0003:0000003c       $pdata$DumpPartition       0000000000008c1c     Dmem:efidump.obj
 0003:00000048       $pdata$DumpSystemTable     0000000000008c28     Dmem:efidump.obj
 0003:00000054       $pdata$InitializeUnicodeCollationSupportWorker 0000000000008c34     EfiShellLib:Init.obj
 0003:00000060       $pdata$LibInitializeStrings 0000000000008c40     EfiShellLib:Init.obj
 0003:0000006c       $pdata$LibInitializeShellApplication 0000000000008c4c     EfiShellLib:Init.obj
 0003:00000078       $pdata$LibGetVariableAndSize 0000000000008c58     EfiShellLib:Misc.obj
 0003:00000084       $pdata$GrowBuffer          0000000000008c64     EfiShellLib:Misc.obj
 0003:00000090       $pdata$GuidToString        0000000000008c70     EfiShellLib:Misc.obj
 0003:0000009c       $pdata$LibGetSystemConfigurationTable 0000000000008c7c     EfiShellLib:Misc.obj
 0003:000000a8       $pdata$ValueToString       0000000000008c88     EfiShellLib:Misc.obj
 0003:000000b4       $pdata$DumpHex             0000000000008c94     EfiShellLib:Misc.obj
 0003:000000c0       $pdata$GetBestLanguage     0000000000008ca0     EfiShellLib:Misc.obj
 0003:000000cc       $pdata$LibSelectBestLanguage 0000000000008cac     EfiShellLib:Misc.obj
 0003:000000d8       $pdata$MetaMatch           0000000000008cb8     EfiShellLib:Str.obj
 0003:000000e4       $pdata$StrToUIntegerBase   0000000000008cc4     EfiShellLib:Str.obj
 0003:000000f0       $pdata$_SPrint             0000000000008cd0     EfiShellLib:IO.obj
 0003:000000fc       $pdata$_PoolCatPrint       0000000000008cdc     EfiShellLib:IO.obj
 0003:00000108       $pdata$SPrint              0000000000008ce8     EfiShellLib:IO.obj
 0003:00000114       $pdata$Print               0000000000008cf4     EfiShellLib:IO.obj
 0003:00000120       $pdata$PrintToken          0000000000008d00     EfiShellLib:IO.obj
 0003:0000012c       $pdata$CatPrint            0000000000008d0c     EfiShellLib:IO.obj
 0003:00000138       $pdata$_IPrint             0000000000008d18     EfiShellLib:IO.obj
 0003:00000144       $pdata$PFLUSH              0000000000008d24     EfiShellLib:IO.obj
 0003:00000150       $pdata$PSETATTR            0000000000008d30     EfiShellLib:IO.obj
 0003:0000015c       $pdata$PPUTC               0000000000008d3c     EfiShellLib:IO.obj
 0003:00000168       $pdata$PITEM               0000000000008d48     EfiShellLib:IO.obj
 0003:00000174       $pdata$_Print              0000000000008d54     EfiShellLib:IO.obj
 0003:00000180       $pdata$SetPageBreak        0000000000008d60     EfiShellLib:IO.obj
 0003:0000018c       $pdata$IFlushWithPageBreak 0000000000008d6c     EfiShellLib:IO.obj
 0003:00000198       $pdata$_PoolPrint          0000000000008d78     EfiShellLib:IO.obj
 0003:000001a4       $pdata$LibCheckVarGetFlag  0000000000008d84     EfiShellLib:VarCheck.obj
 0003:000001b0       $pdata$LibCheckVariables   0000000000008d90     EfiShellLib:VarCheck.obj
 0003:000001bc       $pdata$AllocatePool        0000000000008d9c     EfiShellLib:Mem.obj
 0003:000001c8       $pdata$ReallocatePool      0000000000008da8     EfiShellLib:Mem.obj
 0003:000001d4       $pdata$AllocateZeroPool    0000000000008db4     EfiShellLib:Mem.obj
 0003:000001e0       $pdata$UnpackDevicePath    0000000000008dc0     EfiShellLib:DPath.obj
 0003:000001ec       $pdata$_DevPathMemMap      0000000000008dcc     EfiShellLib:DPath.obj
 0003:000001f8       $pdata$_DevPathVendor      0000000000008dd8     EfiShellLib:DPath.obj
 0003:00000204       $pdata$_DevPathExtendedAcpi 0000000000008de4     EfiShellLib:DPath.obj
 0003:00000210       $pdata$_DevPathAdrAcpi     0000000000008df0     EfiShellLib:DPath.obj
 0003:0000021c       $pdata$_DevPathUsbWWID     0000000000008dfc     EfiShellLib:DPath.obj
 0003:00000228       $pdata$_DevPathUsbClass    0000000000008e08     EfiShellLib:DPath.obj
 0003:00000234       $pdata$_DevPathSata        0000000000008e14     EfiShellLib:DPath.obj
 0003:00000240       $pdata$_DevPathMacAddr     0000000000008e20     EfiShellLib:DPath.obj
 0003:0000024c       $pdata$_DevPathIPv4        0000000000008e2c     EfiShellLib:DPath.obj
 0003:00000258       $pdata$_DevPathIPv6        0000000000008e38     EfiShellLib:DPath.obj
 0003:00000264       $pdata$_DevPathInfiniBand  0000000000008e44     EfiShellLib:DPath.obj
 0003:00000270       $pdata$_DevPathUart        0000000000008e50     EfiShellLib:DPath.obj
 0003:0000027c       $pdata$_DevPathiSCSI       0000000000008e5c     EfiShellLib:DPath.obj
 0003:00000288       $pdata$_DevPathHardDrive   0000000000008e68     EfiShellLib:DPath.obj
 0003:00000294       $pdata$_DevPathFilePath    0000000000008e74     EfiShellLib:DPath.obj
 0003:000002a0       $pdata$LibDevicePathToStr  0000000000008e80     EfiShellLib:DPath.obj
 0003:000002ac       $pdata$LocateHiiProtocols  0000000000008e8c     EfiShellLib:HiiSupport.obj
 0003:000002b8       $pdata$PreparePackageList  0000000000008e98     EfiShellLib:HiiSupport.obj
 0003:000002c4       $pdata$LibGetString        0000000000008ea4     EfiShellLib:HiiSupport.obj
 0003:000002d0       $pdata$LibLocateHandle     0000000000008eb0     EfiShellLib:Handle.obj
 0003:000002dc       $pdata$LibLocateProtocol   0000000000008ebc     EfiShellLib:Handle.obj
 0004:00000000       $unwind$DumpMem            0000000000008ee0     Dmem:mem.obj
 0004:00000000       $unwind$_DevPathAdrAcpi    0000000000008ee0     EfiShellLib:DPath.obj
 0004:00000000       $unwind$_PoolPrint         0000000000008ee0     EfiShellLib:IO.obj
 0004:00000010       $unwind$DmemMainProcOld    0000000000008ef0     Dmem:MemCommonPart.obj
 0004:0000002c       $unwind$DmemMainProc       0000000000008f0c     Dmem:MemCommonPart.obj
 0004:00000044       $unwind$EFITableHeaderPrint 0000000000008f24     Dmem:efidump.obj
 0004:00000054       $unwind$_DevPathMemMap     0000000000008f34     EfiShellLib:DPath.obj
 0004:00000054       $unwind$_DevPathHardDrive  0000000000008f34     EfiShellLib:DPath.obj
 0004:00000054       $unwind$_DevPathUsbWWID    0000000000008f34     EfiShellLib:DPath.obj
 0004:00000054       $unwind$DumpGenericHeader  0000000000008f34     Dmem:efidump.obj
 0004:00000054       $unwind$_DevPathSata       0000000000008f34     EfiShellLib:DPath.obj
 0004:0000005c       $unwind$DumpPartition      0000000000008f3c     Dmem:efidump.obj
 0004:00000064       $unwind$DumpSystemTable    0000000000008f44     Dmem:efidump.obj
 0004:0000006c       $unwind$InitializeUnicodeCollationSupportWorker 0000000000008f4c     EfiShellLib:Init.obj
 0004:00000080       $unwind$LibInitializeStrings 0000000000008f60     EfiShellLib:Init.obj
 0004:0000008c       $unwind$LibInitializeShellApplication 0000000000008f6c     EfiShellLib:Init.obj
 0004:0000009c       $unwind$LibGetVariableAndSize 0000000000008f7c     EfiShellLib:Misc.obj
 0004:000000ac       $unwind$_DevPathFilePath   0000000000008f8c     EfiShellLib:DPath.obj
 0004:000000ac       $unwind$_DevPathMacAddr    0000000000008f8c     EfiShellLib:DPath.obj
 0004:000000ac       $unwind$GrowBuffer         0000000000008f8c     EfiShellLib:Misc.obj
 0004:000000ac       $unwind$ReallocatePool     0000000000008f8c     EfiShellLib:Mem.obj
 0004:000000c0       $unwind$GuidToString       0000000000008fa0     EfiShellLib:Misc.obj
 0004:000000d8       $unwind$LibGetSystemConfigurationTable 0000000000008fb8     EfiShellLib:Misc.obj
 0004:000000ec       $unwind$ValueToString      0000000000008fcc     EfiShellLib:Misc.obj
 0004:000000f4       $unwind$DumpHex            0000000000008fd4     EfiShellLib:Misc.obj
 0004:0000010c       $unwind$GetBestLanguage    0000000000008fec     EfiShellLib:Misc.obj
 0004:0000011c       $unwind$LibSelectBestLanguage 0000000000008ffc     EfiShellLib:Misc.obj
 0004:0000012c       $unwind$MetaMatch          000000000000900c     EfiShellLib:Str.obj
 0004:0000013c       $unwind$StrToUIntegerBase  000000000000901c     EfiShellLib:Str.obj
 0004:00000148       $unwind$AllocateZeroPool   0000000000009028     EfiShellLib:Mem.obj
 0004:00000148       $unwind$_SPrint            0000000000009028     EfiShellLib:IO.obj
 0004:00000150       $unwind$_PoolCatPrint      0000000000009030     EfiShellLib:IO.obj
 0004:00000158       $unwind$SPrint             0000000000009038     EfiShellLib:IO.obj
 0004:00000164       $unwind$Print              0000000000009044     EfiShellLib:IO.obj
 0004:0000016c       $unwind$PrintToken         000000000000904c     EfiShellLib:IO.obj
 0004:00000178       $unwind$CatPrint           0000000000009058     EfiShellLib:IO.obj
 0004:00000180       $unwind$_IPrint            0000000000009060     EfiShellLib:IO.obj
 0004:0000018c       $unwind$PFLUSH             000000000000906c     EfiShellLib:IO.obj
 0004:00000198       $unwind$PSETATTR           0000000000009078     EfiShellLib:IO.obj
 0004:00000198       $unwind$LibCheckVarGetFlag 0000000000009078     EfiShellLib:VarCheck.obj
 0004:00000198       $unwind$PPUTC              0000000000009078     EfiShellLib:IO.obj
 0004:00000198       $unwind$UnpackDevicePath   0000000000009078     EfiShellLib:DPath.obj
 0004:00000198       $unwind$_DevPathUart       0000000000009078     EfiShellLib:DPath.obj
 0004:000001a4       $unwind$PITEM              0000000000009084     EfiShellLib:IO.obj
 0004:000001a4       $unwind$_DevPathExtendedAcpi 0000000000009084     EfiShellLib:DPath.obj
 0004:000001bc       $unwind$_Print             000000000000909c     EfiShellLib:IO.obj
 0004:000001dc       $unwind$SetPageBreak       00000000000090bc     EfiShellLib:IO.obj
 0004:000001ec       $unwind$IFlushWithPageBreak 00000000000090cc     EfiShellLib:IO.obj
 0004:00000204       $unwind$LibCheckVariables  00000000000090e4     EfiShellLib:VarCheck.obj
 0004:0000021c       $unwind$AllocatePool       00000000000090fc     EfiShellLib:Mem.obj
 0004:0000021c       $unwind$LocateHiiProtocols 00000000000090fc     EfiShellLib:HiiSupport.obj
 0004:00000224       $unwind$_DevPathiSCSI      0000000000009104     EfiShellLib:DPath.obj
 0004:00000224       $unwind$_DevPathVendor     0000000000009104     EfiShellLib:DPath.obj
 0004:0000023c       $unwind$_DevPathUsbClass   000000000000911c     EfiShellLib:DPath.obj
 0004:0000023c       $unwind$_DevPathIPv4       000000000000911c     EfiShellLib:DPath.obj
 0004:0000023c       $unwind$_DevPathInfiniBand 000000000000911c     EfiShellLib:DPath.obj
 0004:00000244       $unwind$_DevPathIPv6       0000000000009124     EfiShellLib:DPath.obj
 0004:00000260       $unwind$LibDevicePathToStr 0000000000009140     EfiShellLib:DPath.obj
 0004:00000274       $unwind$PreparePackageList 0000000000009154     EfiShellLib:HiiSupport.obj
 0004:00000288       $unwind$LibGetString       0000000000009168     EfiShellLib:HiiSupport.obj
 0004:000002a4       $unwind$LibLocateHandle    0000000000009184     EfiShellLib:Handle.obj
 0004:000002b8       $unwind$LibLocateProtocol  0000000000009198     EfiShellLib:Handle.obj
