 Edit

 Timestamp is 5bc88630 (Thu Oct 18 21:10:08 2018)

 Preferred load address is 0000000000000000

 Start         Length     Name                   Class
 0001:00000000 000076b8H .text$mn                CODE
 0002:00000000 00000c20H .data                   DATA
 0002:00000c20 00000d40H .rdata                  DATA
 0002:00001960 000002b0H .bss                    DATA
 0003:00000000 00000414H .pdata                  DATA
 0004:00000000 0000031cH .xdata                  DATA

  Address         Publics by Value              Rva+Base               Lib:Object

 0000:00000000       __guard_fids_count         0000000000000000     <absolute>
 0000:00000000       __guard_fids_table         0000000000000000     <absolute>
 0000:00000000       __guard_flags              0000000000000000     <absolute>
 0001:00000000       InitializeEFIEditor        00000000000002a0 f   Edit:main.obj
 0001:000003a0       EditorClearLine            0000000000000640 f   Edit:libMisc.obj
 0001:00000400       LineDup                    00000000000006a0 f   Edit:libMisc.obj
 0001:0000047c       MoveLine                   000000000000071c f   Edit:libMisc.obj
 0001:000004f0       LineCat                    0000000000000790 f   Edit:libMisc.obj
 0001:0000058c       IsValidFileName            000000000000082c f   Edit:libMisc.obj
 0001:00000634       FileBufferInit             00000000000008d4 f   Edit:libFileBuffer.obj
 0001:000007d4       FileBufferRestoreMousePosition 0000000000000a74 f   Edit:libFileBuffer.obj
 0001:000009c8       FileBufferFreeLines        0000000000000c68 f   Edit:libFileBuffer.obj
 0001:00000a54       FileBufferPrintLine        0000000000000cf4 f   Edit:libFileBuffer.obj
 0001:00000b18       FileBufferRestorePosition  0000000000000db8 f   Edit:libFileBuffer.obj
 0001:00000b4c       FileBufferRefresh          0000000000000dec f   Edit:libFileBuffer.obj
 0001:00000cdc       FileBufferCreateLine       0000000000000f7c f   Edit:libFileBuffer.obj
 0001:00000d70       FileBufferSetFileName      0000000000001010 f   Edit:libFileBuffer.obj
 0001:00000e10       FileBufferGetFileInfo      00000000000010b0 f   Edit:libFileBuffer.obj
 0001:00000e88       FileBufferRead             0000000000001128 f   Edit:libFileBuffer.obj
 0001:00001904       GetNewLine                 0000000000001ba4 f   Edit:libFileBuffer.obj
 0001:000019bc       FileBufferSave             0000000000001c5c f   Edit:libFileBuffer.obj
 0001:00001ea0       FileBufferHandleInput      0000000000002140 f   Edit:libFileBuffer.obj
 0001:000020e0       FileBufferAddChar          0000000000002380 f   Edit:libFileBuffer.obj
 0001:000021bc       FileBufferMovePosition     000000000000245c f   Edit:libFileBuffer.obj
 0001:00002314       FileBufferScrollRight      00000000000025b4 f   Edit:libFileBuffer.obj
 0001:00002364       FileBufferScrollLeft       0000000000002604 f   Edit:libFileBuffer.obj
 0001:000023ac       FileBufferDoReturn         000000000000264c f   Edit:libFileBuffer.obj
 0001:00002534       FileBufferDoBackspace      00000000000027d4 f   Edit:libFileBuffer.obj
 0001:00002620       FileBufferDoDelete         00000000000028c0 f   Edit:libFileBuffer.obj
 0001:000026fc       FileBufferPasteLine        000000000000299c f   Edit:libFileBuffer.obj
 0001:000027b8       FileBufferSearch           0000000000002a58 f   Edit:libFileBuffer.obj
 0001:0000289c       FileBufferReplace          0000000000002b3c f   Edit:libFileBuffer.obj
 0001:00002af0       FileBufferReplaceAll       0000000000002d90 f   Edit:libFileBuffer.obj
 0001:00002cf4       MainEditorInit             0000000000002f94 f   Edit:libEditor.obj
 0001:00002fa8       MainEditorCleanup          0000000000003248 f   Edit:libEditor.obj
 0001:000030e4       MainEditorRefresh          0000000000003384 f   Edit:libEditor.obj
 0001:0000328c       MainEditorKeyInput         000000000000352c f   Edit:libEditor.obj
 0001:000035b8       MainEditorBackup           0000000000003858 f   Edit:libEditor.obj
 0001:0000367c       MainStatusBarRefresh       000000000000391c f   Edit:libStatusBar.obj
 0001:00003830       MainStatusBarSetStatusString 0000000000003ad0 f   Edit:libStatusBar.obj
 0001:00003884       MainTitleBarRefresh        0000000000003b24 f   Edit:libTitleBar.obj
 0001:00003aa0       MainCommandOpenFile        0000000000003d40 f   Edit:libMenuBar.obj
 0001:00003c10       MainCommandSaveFile        0000000000003eb0 f   Edit:libMenuBar.obj
 0001:00003f80       MainCommandExit            0000000000004220 f   Edit:libMenuBar.obj
 0001:00004048       MainCommandCutLine         00000000000042e8 f   Edit:libMenuBar.obj
 0001:0000415c       MainCommandPasteLine       00000000000043fc f   Edit:libMenuBar.obj
 0001:00004188       MainCommandGotoLine        0000000000004428 f   Edit:libMenuBar.obj
 0001:0000429c       MainCommandSearch          000000000000453c f   Edit:libMenuBar.obj
 0001:00004468       MainCommandSearchReplace   0000000000004708 f   Edit:libMenuBar.obj
 0001:00004804       MainInputBarPrintInput     0000000000004aa4 f   Edit:libInputBar.obj
 0001:00004930       MainInputBarRefresh        0000000000004bd0 f   Edit:libInputBar.obj
 0001:00004b50       MainInputBarSetPrompt      0000000000004df0 f   Edit:libInputBar.obj
 0001:00004ba4       MainInputBarSetStringSize  0000000000004e44 f   Edit:libInputBar.obj
 0001:00004bfc       LibCheckVarGetFlag         0000000000004e9c f   EfiShellLib:VarCheck.obj
 0001:00004c40       iCompareSetFlag            0000000000004ee0 f   EfiShellLib:VarCheck.obj
 0001:00004c9c       LibCheckVariables          0000000000004f3c f   EfiShellLib:VarCheck.obj
 0001:00004fe8       InitializeUnicodeCollationSupportWorker 0000000000005288 f   EfiShellLib:Init.obj
 0001:000050e4       LibInitializeStrings       0000000000005384 f   EfiShellLib:Init.obj
 0001:000051d4       LibInitializeShellApplication 0000000000005474 f   EfiShellLib:Init.obj
 0001:0000543c       _SPrint                    00000000000056dc f   EfiShellLib:IO.obj
 0001:000054b4       _PoolCatPrint              0000000000005754 f   EfiShellLib:IO.obj
 0001:00005500       SPrint                     00000000000057a0 f   EfiShellLib:IO.obj
 0001:00005574       Print                      0000000000005814 f   EfiShellLib:IO.obj
 0001:000055b4       PoolPrint                  0000000000005854 f   EfiShellLib:IO.obj
 0001:00005600       PrintToken                 00000000000058a0 f   EfiShellLib:IO.obj
 0001:000056d0       PrintAt                    0000000000005970 f   EfiShellLib:IO.obj
 0001:00005700       _IPrint                    00000000000059a0 f   EfiShellLib:IO.obj
 0001:000057dc       PFLUSH                     0000000000005a7c f   EfiShellLib:IO.obj
 0001:0000589c       PSETATTR                   0000000000005b3c f   EfiShellLib:IO.obj
 0001:000058e0       PPUTC                      0000000000005b80 f   EfiShellLib:IO.obj
 0001:0000595c       PITEM                      0000000000005bfc f   EfiShellLib:IO.obj
 0001:00005a8c       _Print                     0000000000005d2c f   EfiShellLib:IO.obj
 0001:000060a4       SetPageBreak               0000000000006344 f   EfiShellLib:IO.obj
 0001:000061b8       IFlushWithPageBreak        0000000000006458 f   EfiShellLib:IO.obj
 0001:000062fc       _PoolPrint                 000000000000659c f   EfiShellLib:IO.obj
 0001:00006380       StrCat                     0000000000006620 f   EfiShellLib:Str.obj
 0001:000063c0       StrStr                     0000000000006660 f   EfiShellLib:Str.obj
 0001:000064fc       LibStubMetaiMatch          000000000000679c f   EfiShellLib:Str.obj
 0001:00006508       MetaMatch                  00000000000067a8 f   EfiShellLib:Str.obj
 0001:00006720       LibStubStriCmp             00000000000069c0 f   EfiShellLib:Str.obj
 0001:000067a4       LibStubStrUpr              0000000000006a44 f   EfiShellLib:Str.obj
 0001:000067c4       LibStubStrLwr              0000000000006a64 f   EfiShellLib:Str.obj
 0001:000067e4       StrDuplicate               0000000000006a84 f   EfiShellLib:Str.obj
 0001:0000684c       CopyMem                    0000000000006aec f   EfiShellLib:Mem.obj
 0001:00006890       AllocatePool               0000000000006b30 f   EfiShellLib:Mem.obj
 0001:000068c4       ReallocatePool             0000000000006b64 f   EfiShellLib:Mem.obj
 0001:00006938       AllocateZeroPool           0000000000006bd8 f   EfiShellLib:Mem.obj
 0001:00006964       LibGetVariableAndSize      0000000000006c04 f   EfiShellLib:Misc.obj
 0001:000069f0       GrowBuffer                 0000000000006c90 f   EfiShellLib:Misc.obj
 0001:00006a90       GuidToString               0000000000006d30 f   EfiShellLib:Misc.obj
 0001:00006ba0       StatusToString             0000000000006e40 f   EfiShellLib:Misc.obj
 0001:00006f40       ValueToString              00000000000071e0 f   EfiShellLib:Misc.obj
 0001:00007028       GetBestLanguage            00000000000072c8 f   EfiShellLib:Misc.obj
 0001:00007184       LibSelectBestLanguage      0000000000007424 f   EfiShellLib:Misc.obj
 0001:00007218       LibDevicePathToInterface   00000000000074b8 f   EfiShellLib:DPath.obj
 0001:000072a0       LocateHiiProtocols         0000000000007540 f   EfiShellLib:HiiSupport.obj
 0001:000072ec       PreparePackageList         000000000000758c f   EfiShellLib:HiiSupport.obj
 0001:000073e0       LibGetString               0000000000007680 f   EfiShellLib:HiiSupport.obj
 0001:00007570       LibLocateHandle            0000000000007810 f   EfiShellLib:Handle.obj
 0001:00007614       LibLocateProtocol          00000000000078b4 f   EfiShellLib:Handle.obj
 0002:00000000       EfiEditGuid                0000000000007960     Edit:main.obj
 0002:00000010       EditCheckList              0000000000007970     Edit:main.obj
 0002:00000060       FileBufferConst            00000000000079c0     Edit:libFileBuffer.obj
 0002:000000e0       MainEditorConst            0000000000007a40     Edit:libEditor.obj
 0002:00000140       EditStrings                0000000000007aa0     Edit:AutoGen.obj
 0002:00000a60       MainMenuItems              00000000000083c0     Edit:libMenuBar.obj
 0002:00000b00       MainMenuBarConst           0000000000008460     Edit:libMenuBar.obj
 0002:00000b08       PoolAllocationType         0000000000008468     EfiShellLib:Data.obj
 0002:00000b10       ShellEnvProtocol           0000000000008470     EfiShellLib:Data.obj
 0002:00000b20       LibStubUnicodeInterface    0000000000008480     EfiShellLib:Data.obj
 0002:00000b58       UnicodeInterface           00000000000084b8     EfiShellLib:Data.obj
 0002:00000b60       SESGuid                    00000000000084c0     EfiShellLib:Init.obj
 0002:00000b70       ShellInterfaceProtocol     00000000000084d0     EfiShellLib:Misc.obj
 0002:00000b80       gEfiFileSystemInfoGuid     00000000000084e0     EfiProtocolLib:FileSystemInfo.obj
 0002:00000b90       gEfiSimpleFileSystemProtocolGuid 00000000000084f0     EfiProtocolLib:SimpleFileSystem.obj
 0002:00000ba0       gEfiFileInfoGuid           0000000000008500     EfiProtocolLib:FileInfo.obj
 0002:00000bb0       gEfiSimplePointerProtocolGuid 0000000000008510     EfiProtocolLib:SimplePointer.obj
 0002:00000bc0       gEfiLoadedImageProtocolGuid 0000000000008520     EfiProtocolLib:LoadedImage.obj
 0002:00000bd0       gEfiUnicodeCollation2ProtocolGuid 0000000000008530     EfiProtocolLib:UnicodeCollation2.obj
 0002:00000be0       gEfiUnicodeCollationProtocolGuid 0000000000008540     EfiProtocolLib:UnicodeCollation.obj
 0002:00000bf0       gEfiHiiStringProtocolGuid  0000000000008550     EfiProtocolLib:HiiString.obj
 0002:00000c00       gEfiHiiDatabaseProtocolGuid 0000000000008560     EfiProtocolLib:HiiDatabase.obj
 0002:00000c10       gEfiGlobalVariableGuid     0000000000008570     EfiGuidLib:GlobalVariable.obj
 0002:00000c20       ??_C@_15FNEHKAED@?$AA?9?$AA?$DP?$AA?$AA@ 0000000000008580     Edit:main.obj
 0002:00000c28       ??_C@_15GECAHHDM@?$AA?9?$AAb?$AA?$AA@ 0000000000008588     Edit:main.obj
 0002:00000c30       ??_C@_11LOCGONAA@?$AA?$AA@ 0000000000008590     Edit:main.obj
 0002:00000c38       ??_C@_19LELMJPKF@?$AAe?$AAd?$AAi?$AAt?$AA?$AA@ 0000000000008598     Edit:main.obj
 0002:00000c44       ??_C@_15GANGMFKL@?$AA?$CF?$AAs?$AA?$AA@ 00000000000085a4     Edit:main.obj
 0002:00000c50       ??_C@_17KGPNDDML@?$AA?$CF?$AAs?$AA?$AA?$AA?$AA@ 00000000000085b0     Edit:libMisc.obj
 0002:00000c58       ??_C@_19LJDFFCJJ@?$AA?$CF?$AAs?$AA?$CF?$AAs?$AA?$AA@ 00000000000085b8     Edit:libMisc.obj
 0002:00000c64       ??_C@_13HOIJIPNN@?$AA?5?$AA?$AA@ 00000000000085c4     Edit:libFileBuffer.obj
 0002:00000c68       ??_C@_15DAMPJCDE@?$AA?$CF?$AAc?$AA?$AA@ 00000000000085c8     Edit:libFileBuffer.obj
 0002:00000c70       ??_C@_13NOLLCAOD@?$AA?$AA?$AA?$AA@ 00000000000085d0     Edit:libFileBuffer.obj
 0002:00000c78       ??_C@_1BG@BHAMKCMJ@?$AAD?$AAi?$AAs?$AAk?$AA?5?$AAE?$AAr?$AAr?$AAo?$AAr?$AA?$AA@ 00000000000085d8     Edit:libFileBuffer.obj
 0002:00000c90       ??_C@_1DI@JJCDHCMP@?$AAD?$AAi?$AAr?$AAe?$AAc?$AAt?$AAo?$AAr?$AAy?$AA?5?$AAC?$AAa?$AAn?$AA?5?$AAN?$AAo?$AAt?$AA?5?$AAB?$AAe?$AA?5?$AAE?$AAd?$AAi?$AAt?$AAe?$AAd?$AA?$AA@ 00000000000085f0     Edit:libFileBuffer.obj
 0002:00000cc8       ??_C@_1BM@HDPINFLL@?$AAA?$AAc?$AAc?$AAe?$AAs?$AAs?$AA?5?$AAD?$AAe?$AAn?$AAi?$AAe?$AAd?$AA?$AA@ 0000000000008628     Edit:libFileBuffer.obj
 0002:00000ce8       ??_C@_1CE@PAJDEKJB@?$AAI?$AAn?$AAv?$AAa?$AAl?$AAi?$AAd?$AA?5?$AAF?$AAi?$AAl?$AAe?$AA?5?$AAN?$AAa?$AAm?$AAe?$AA?$AA@ 0000000000008648     Edit:libFileBuffer.obj
 0002:00000d10       ??_C@_1CC@ECPIEGMO@?$AAR?$AAe?$AAa?$AAd?$AA?5?$AAF?$AAi?$AAl?$AAe?$AA?5?$AAF?$AAa?$AAi?$AAl?$AAe?$AAd?$AA?$AA@ 0000000000008670     Edit:libFileBuffer.obj
 0002:00000d34       ??_C@_13FPGAJAPJ@?$AA?2?$AA?$AA@ 0000000000008694     Edit:libFileBuffer.obj
 0002:00000d38       ??_C@_1CE@MDDOMDFD@?$AAF?$AAi?$AAl?$AAe?$AA?5?$AAF?$AAo?$AAr?$AAm?$AAa?$AAt?$AA?5?$AAW?$AAr?$AAo?$AAn?$AAg?$AA?$AA@ 0000000000008698     Edit:libFileBuffer.obj
 0002:00000d60       ??_C@_1BM@EIMMJFOI@?$AA?$CF?$AAd?$AA?5?$AAL?$AAi?$AAn?$AAe?$AAs?$AA?5?$AAR?$AAe?$AAa?$AAd?$AA?$AA@ 00000000000086c0     Edit:libFileBuffer.obj
 0002:00000d80       ??_C@_1DE@MFJNINFA@?$AAW?$AAA?$AAR?$AAN?$AAI?$AAN?$AAG?$AA?3?$AA?5?$AAV?$AAo?$AAl?$AAu?$AAm?$AAe?$AA?5?$AAR?$AAe?$AAa?$AAd?$AA?5?$AAO?$AAn?$AAl?$AAy?$AA?$AA@ 00000000000086e0     Edit:libFileBuffer.obj
 0002:00000dc0       ??_C@_1EA@KMGLANCH@?$AAR?$AAe?$AAa?$AAd?$AA?5?$AAO?$AAn?$AAl?$AAy?$AA?5?$AAF?$AAi?$AAl?$AAe?$AA?5?$AAC?$AAa?$AAn?$AA?5?$AAN?$AAo?$AAt?$AA?5?$AAB?$AAe?$AA?5?$AAS?$AAa?$AAv?$AAe?$AAd?$AA?$AA@ 0000000000008720     Edit:libFileBuffer.obj
 0002:00000e00       ??_C@_1DG@JNGOCPNM@?$AAD?$AAi?$AAr?$AAe?$AAc?$AAt?$AAo?$AAr?$AAy?$AA?5?$AAC?$AAa?$AAn?$AA?5?$AAN?$AAo?$AAt?$AA?5?$AAB?$AAe?$AA?5?$AAS?$AAa?$AAv?$AAe?$AAd?$AA?$AA@ 0000000000008760     Edit:libFileBuffer.obj
 0002:00000e38       ??_C@_1CE@ICGBOPPJ@?$AAW?$AAr?$AAi?$AAt?$AAe?$AA?5?$AAF?$AAi?$AAl?$AAe?$AA?5?$AAF?$AAa?$AAi?$AAl?$AAe?$AAd?$AA?$AA@ 0000000000008798     Edit:libFileBuffer.obj
 0002:00000e60       ??_C@_1CG@LGANFAB@?$AAC?$AAr?$AAe?$AAa?$AAt?$AAe?$AA?5?$AAF?$AAi?$AAl?$AAe?$AA?5?$AAF?$AAa?$AAi?$AAl?$AAe?$AAd?$AA?$AA@ 00000000000087c0     Edit:libFileBuffer.obj
 0002:00000e88       ??_C@_1BO@FBLHKMPK@?$AA?$CF?$AAd?$AA?5?$AAL?$AAi?$AAn?$AAe?$AAs?$AA?5?$AAW?$AAr?$AAo?$AAt?$AAe?$AA?$AA@ 00000000000087e8     Edit:libFileBuffer.obj
 0002:00000eb0       ??_C@_1EG@GMIKLNFD@?$AAR?$AAe?$AAa?$AAd?$AA?5?$AAO?$AAn?$AAl?$AAy?$AA?5?$AAF?$AAi?$AAl?$AAe?$AA?5?$AAC?$AAa?$AAn?$AA?5?$AAN?$AAo?$AAt?$AA?5?$AAB?$AAe?$AA?5?$AAM?$AAo?$AAd?$AAi?$AAf?$AAi@ 0000000000008810     Edit:libFileBuffer.obj
 0002:00000ef8       ??_C@_1CA@DIEHGKLA@?$AAU?$AAn?$AAk?$AAn?$AAo?$AAw?$AAn?$AA?5?$AAC?$AAo?$AAm?$AAm?$AAa?$AAn?$AAd?$AA?$AA@ 0000000000008858     Edit:libFileBuffer.obj
 0002:00000f18       ??_C@_1BO@PAMCONJL@?$AAN?$AAo?$AAt?$AAh?$AAi?$AAn?$AAg?$AA?5?$AAt?$AAo?$AA?5?$AAC?$AAu?$AAt?$AA?$AA@ 0000000000008878     Edit:libFileBuffer.obj
 0002:00000f38       ??_C@_1BM@MFAAFCGH@?$AAN?$AAe?$AAw?$AAF?$AAi?$AAl?$AAe?$AA?$CF?$AAd?$AA?4?$AAt?$AAx?$AAt?$AA?$AA@ 0000000000008898     Edit:libFileBuffer.obj
 0002:00000f58       ??_C@_1BI@DLMEECF@?$AAN?$AAe?$AAw?$AAF?$AAi?$AAl?$AAe?$AA?4?$AAt?$AAx?$AAt?$AA?$AA@ 00000000000088b8     Edit:libFileBuffer.obj
 0002:00000f70       ??_C@_1CM@BMOMFGJM@?$AAD?$AAi?$AAs?$AAk?$AA?5?$AAE?$AAr?$AAr?$AAo?$AAr?$AA?4?$AA?5?$AAT?$AAr?$AAy?$AA?5?$AAA?$AAg?$AAa?$AAi?$AAn?$AA?$AA@ 00000000000088d0     Edit:libEditor.obj
 0002:00000fa0       ??_C@_1DI@KOJFHFFL@?$AA?5?$AA?5?$AAR?$AAo?$AAw?$AA?3?$AA?5?$AA?$CF?$AAd?$AA?5?$AA?5?$AAC?$AAo?$AAl?$AA?3?$AA?5?$AA?$CF?$AAd?$AA?5?$AA?5?$AA?5?$AA?5?$AA?5?$AA?5?$AA?5?$AA?$CF?$AAs?$AA?$AA@ 0000000000008900     Edit:libStatusBar.obj
 0002:00000fd8       ??_C@_17EAOFDCAA@?$AAI?$AAN?$AAS?$AA?$AA@ 0000000000008938     Edit:libStatusBar.obj
 0002:00000fe0       ??_C@_19ONMJPOOG@?$AA?$HM?$AA?$CF?$AAs?$AA?$HM?$AA?$AA@ 0000000000008940     Edit:libStatusBar.obj
 0002:00000ff0       ??_C@_17NBLDNMBE@?$AAO?$AAV?$AAR?$AA?$AA@ 0000000000008950     Edit:libStatusBar.obj
 0002:00000ff8       ??_C@_1M@HIGACCME@?$AA0?$AA?4?$AA9?$AA9?$AA?$AA?$AA?$AA@ 0000000000008958     Edit:libTitleBar.obj
 0002:00001008       ??_C@_1BI@HOFCPOPP@?$AAE?$AAF?$AAI?$AA?5?$AAE?$AAd?$AAi?$AAt?$AAo?$AAr?$AA?$AA?$AA?$AA@ 0000000000008968     Edit:libTitleBar.obj
 0002:00001020       ??_C@_1BC@FAEOEMDP@?$AA?5?$AA?5?$AA?$CF?$AAs?$AA?5?$AA?5?$AA?$CF?$AAs?$AA?$AA@ 0000000000008980     Edit:libTitleBar.obj
 0002:00001038       ??_C@_1BA@OBKIJECJ@?$AA?$CF?$AAs?$AA?5?$AA?5?$AA?5?$AA?5?$AA?5?$AA?$AA@ 0000000000008998     Edit:libTitleBar.obj
 0002:00001048       ??_C@_1M@EHCOGDLN@?$AA?$CF?$AAs?$AA?5?$AA?5?$AA?5?$AA?$AA@ 00000000000089a8     Edit:libTitleBar.obj
 0002:00001058       ??_C@_1O@NGMHFILL@?$AA?4?$AA?4?$AA?4?$AA?5?$AA?5?$AA?5?$AA?$AA@ 00000000000089b8     Edit:libTitleBar.obj
 0002:00001068       ??_C@_1CA@JILHKOPA@?$AA?5?$AA?5?$AA?5?$AA?5?$AA?5?$AAA?$AAS?$AAC?$AAI?$AAI?$AA?5?$AA?5?$AA?5?$AA?5?$AA?5?$AA?$AA@ 00000000000089c8     Edit:libTitleBar.obj
 0002:00001088       ??_C@_1CA@DJBIHGGP@?$AA?5?$AA?5?$AA?5?$AA?5?$AA?5?$AAU?$AAN?$AAI?$AAC?$AAO?$AAD?$AAE?$AA?5?$AA?5?$AA?5?$AA?$AA@ 00000000000089e8     Edit:libTitleBar.obj
 0002:000010a8       ??_C@_1BI@ONNEOCHN@?$AAR?$AAe?$AAa?$AAd?$AAO?$AAn?$AAl?$AAy?$AA?5?$AA?5?$AA?5?$AA?$AA@ 0000000000008a08     Edit:libTitleBar.obj
 0002:000010c0       ??_C@_1BI@LOBCKCIO@?$AA?5?$AA?5?$AA?5?$AA?5?$AA?5?$AA?5?$AA?5?$AA?5?$AA?5?$AA?5?$AA?5?$AA?$AA@ 0000000000008a20     Edit:libTitleBar.obj
 0002:000010d8       ??_C@_1BC@LJMDACDF@?$AAM?$AAo?$AAd?$AAi?$AAf?$AAi?$AAe?$AAd?$AA?$AA@ 0000000000008a38     Edit:libTitleBar.obj
 0002:000010f0       ??_C@_1CC@IAMKKFJJ@?$AA?$CF?$AAE?$AA?$CF?$AAs?$AA?$CF?$AAN?$AA?5?$AA?5?$AA?$CF?$AAH?$AA?$CF?$AAs?$AA?$CF?$AAN?$AA?5?$AA?5?$AA?$AA@ 0000000000008a50     Edit:libMenuBar.obj
 0002:00001120       ??_C@_1EO@GOADCGFO@?$AAF?$AAi?$AAl?$AAe?$AA?5?$AAm?$AAo?$AAd?$AAi?$AAf?$AAi?$AAe?$AAd?$AA?4?$AA?5?$AAS?$AAa?$AAv?$AAe?$AA?5?$AA?$CI?$AAY?$AAe?$AAs?$AA?1?$AAN?$AAo?$AA?1?$AAC?$AAa?$AAn?$AAc@ 0000000000008a80     Edit:libMenuBar.obj
 0002:00001170       ??_C@_1CI@PPPODMPB@?$AAF?$AAi?$AAl?$AAe?$AA?5?$AAN?$AAa?$AAm?$AAe?$AA?5?$AAt?$AAo?$AA?5?$AAO?$AAp?$AAe?$AAn?$AA?3?$AA?5?$AA?$AA@ 0000000000008ad0     Edit:libMenuBar.obj
 0002:00001198       ??_C@_1CG@NJHNCLOJ@?$AAF?$AAi?$AAl?$AAe?$AA?5?$AAt?$AAo?$AA?5?$AAS?$AAa?$AAv?$AAe?$AA?3?$AA?5?$AA?$FL?$AA?$CF?$AAs?$AA?$FN?$AA?$AA@ 0000000000008af8     Edit:libMenuBar.obj
 0002:000011c0       ??_C@_1FE@GJKODLCN@?$AAF?$AAi?$AAl?$AAe?$AA?5?$AAe?$AAx?$AAi?$AAs?$AAt?$AAs?$AA?4?$AA?5?$AAO?$AAv?$AAe?$AAr?$AAw?$AAr?$AAi?$AAt?$AAe?$AA?5?$AA?$CI?$AAY?$AAe?$AAs?$AA?1?$AAN?$AAo?$AA?1?$AAC@ 0000000000008b20     Edit:libMenuBar.obj
 0002:00001218       ??_C@_1CC@MLNBOFNI@?$AAN?$AAo?$AA?5?$AAL?$AAi?$AAn?$AAe?$AA?5?$AAt?$AAo?$AA?5?$AAP?$AAa?$AAs?$AAt?$AAe?$AA?$AA@ 0000000000008b78     Edit:libMenuBar.obj
 0002:00001240       ??_C@_1BK@OOJDBGIO@?$AAG?$AAo?$AA?5?$AAT?$AAo?$AA?5?$AAL?$AAi?$AAn?$AAe?$AA?3?$AA?5?$AA?$AA@ 0000000000008ba0     Edit:libMenuBar.obj
 0002:00001260       ??_C@_1BK@NIKDLOEH@?$AAN?$AAo?$AA?5?$AAS?$AAu?$AAc?$AAh?$AA?5?$AAL?$AAi?$AAn?$AAe?$AA?$AA@ 0000000000008bc0     Edit:libMenuBar.obj
 0002:00001280       ??_C@_1CM@DJMHEHIN@?$AAE?$AAn?$AAt?$AAe?$AAr?$AA?5?$AAS?$AAe?$AAa?$AAr?$AAc?$AAh?$AA?5?$AAS?$AAt?$AAr?$AAi?$AAn?$AAg?$AA?3?$AA?5?$AA?$AA@ 0000000000008be0     Edit:libMenuBar.obj
 0002:000012b0       ??_C@_1CK@IKKEFLKO@?$AAF?$AAi?$AAn?$AAd?$AA?5?$AAN?$AAe?$AAx?$AAt?$AA?5?$AA?$CI?$AAY?$AAe?$AAs?$AA?1?$AAN?$AAo?$AA?$CJ?$AA?5?$AA?$DP?$AA?$AA@ 0000000000008c10     Edit:libMenuBar.obj
 0002:000012e0       ??_C@_1DA@GANIGBBH@?$AAS?$AAe?$AAa?$AAr?$AAc?$AAh?$AA?5?$AAS?$AAt?$AAr?$AAi?$AAn?$AAg?$AA?5?$AAN?$AAo?$AAt?$AA?5?$AAF?$AAo?$AAu?$AAn?$AAd?$AA?$AA@ 0000000000008c40     Edit:libMenuBar.obj
 0002:00001310       ??_C@_1BO@POPBJCFI@?$AAR?$AAe?$AAp?$AAl?$AAa?$AAc?$AAe?$AA?5?$AAW?$AAi?$AAt?$AAh?$AA?3?$AA?5?$AA?$AA@ 0000000000008c70     Edit:libMenuBar.obj
 0002:00001330       ??_C@_1DM@FAGODAPI@?$AAR?$AAe?$AAp?$AAl?$AAa?$AAc?$AAe?$AA?5?$AA?$CI?$AAY?$AAe?$AAs?$AA?1?$AAN?$AAo?$AA?1?$AAA?$AAl?$AAl?$AA?1?$AAC?$AAa?$AAn?$AAc?$AAe?$AAl?$AA?$CJ?$AA?5?$AA?$DP?$AA?$AA@ 0000000000008c90     Edit:libMenuBar.obj
 0002:00001370       ??_C@_1O@HMNHGLNF@?$AAY?$AAe?$AAs?$AA?1?$AAN?$AAo?$AA?$AA@ 0000000000008cd0     Edit:libInputBar.obj
 0002:00001380       ??_C@_17GMPJMPF@?$AA?$CF?$AAs?$AA?5?$AA?$AA@ 0000000000008ce0     Edit:libInputBar.obj
 0002:00001388       ??_C@_06OJHGLDPL@?$CInull?$CJ?$AA@ 0000000000008ce8     EfiShellLib:IO.obj
 0002:00001390       ??_C@_1O@CEDCILHN@?$AA?$CI?$AAn?$AAu?$AAl?$AAl?$AA?$CJ?$AA?$AA@ 0000000000008cf0     EfiShellLib:IO.obj
 0002:000013a0       ??_C@_1EM@PFLICCFE@?$AAP?$AAr?$AAe?$AAs?$AAs?$AA?5?$AAE?$AAN?$AAT?$AAE?$AAR?$AA?5?$AAt?$AAo?$AA?5?$AAc?$AAo?$AAn?$AAt?$AAi?$AAn?$AAu?$AAe?$AA?0?$AA?5?$AA?8?$AAq?$AA?8?$AA?5?$AAt?$AAo?$AA?5@ 0000000000008d00     EfiShellLib:IO.obj
 0002:000013ec       ??_C@_15JNBOKNOG@?$AA?$AN?$AA?6?$AA?$AA@ 0000000000008d4c     EfiShellLib:IO.obj
 0002:000013f8       ??_C@_19BALNHBBC@?$AAL?$AAa?$AAn?$AAg?$AA?$AA@ 0000000000008d58     EfiShellLib:Misc.obj
 0002:00001408       ??_C@_1BK@GGGENMOA@?$AAP?$AAl?$AAa?$AAt?$AAf?$AAo?$AAr?$AAm?$AAL?$AAa?$AAn?$AAg?$AA?$AA@ 0000000000008d68     EfiShellLib:Misc.obj
 0002:00001430       ??_C@_1GC@MIJCAPDC@?$AA?$CF?$AA0?$AA8?$AAx?$AA?9?$AA?$CF?$AA0?$AA4?$AAx?$AA?9?$AA?$CF?$AA0?$AA4?$AAx?$AA?9?$AA?$CF?$AA0?$AA2?$AAx?$AA?$CF?$AA0?$AA2?$AAx?$AA?9?$AA?$CF?$AA0?$AA2?$AAx?$AA?$CF?$AA0?$AA2?$AAx@ 0000000000008d90     EfiShellLib:Misc.obj
 0002:00001498       ??_C@_1BA@JFDCMKFN@?$AAS?$AAu?$AAc?$AAc?$AAe?$AAs?$AAs?$AA?$AA@ 0000000000008df8     EfiShellLib:Misc.obj
 0002:000014a8       ??_C@_1BG@IPPBEJLN@?$AAL?$AAo?$AAa?$AAd?$AA?5?$AAE?$AAr?$AAr?$AAo?$AAr?$AA?$AA@ 0000000000008e08     EfiShellLib:Misc.obj
 0002:000014c0       ??_C@_1CE@FAJJAJHO@?$AAI?$AAn?$AAv?$AAa?$AAl?$AAi?$AAd?$AA?5?$AAP?$AAa?$AAr?$AAa?$AAm?$AAe?$AAt?$AAe?$AAr?$AA?$AA@ 0000000000008e20     EfiShellLib:Misc.obj
 0002:000014e8       ??_C@_1BI@HACEKCKB@?$AAU?$AAn?$AAs?$AAu?$AAp?$AAp?$AAo?$AAr?$AAt?$AAe?$AAd?$AA?$AA@ 0000000000008e48     EfiShellLib:Misc.obj
 0002:00001500       ??_C@_1CA@MKNIKBGN@?$AAB?$AAa?$AAd?$AA?5?$AAB?$AAu?$AAf?$AAf?$AAe?$AAr?$AA?5?$AAS?$AAi?$AAz?$AAe?$AA?$AA@ 0000000000008e60     EfiShellLib:Misc.obj
 0002:00001520       ??_C@_1CC@GADLJCKI@?$AAB?$AAu?$AAf?$AAf?$AAe?$AAr?$AA?5?$AAT?$AAo?$AAo?$AA?5?$AAS?$AAm?$AAa?$AAl?$AAl?$AA?$AA@ 0000000000008e80     EfiShellLib:Misc.obj
 0002:00001548       ??_C@_1BE@HFDAGNKF@?$AAN?$AAo?$AAt?$AA?5?$AAR?$AAe?$AAa?$AAd?$AAy?$AA?$AA@ 0000000000008ea8     EfiShellLib:Misc.obj
 0002:00001560       ??_C@_1BK@MPLHBIOA@?$AAD?$AAe?$AAv?$AAi?$AAc?$AAe?$AA?5?$AAE?$AAr?$AAr?$AAo?$AAr?$AA?$AA@ 0000000000008ec0     EfiShellLib:Misc.obj
 0002:00001580       ??_C@_1CA@PAGBHICH@?$AAW?$AAr?$AAi?$AAt?$AAe?$AA?5?$AAP?$AAr?$AAo?$AAt?$AAe?$AAc?$AAt?$AAe?$AAd?$AA?$AA@ 0000000000008ee0     EfiShellLib:Misc.obj
 0002:000015a0       ??_C@_1CC@JDEEHPBA@?$AAO?$AAu?$AAt?$AA?5?$AAo?$AAf?$AA?5?$AAR?$AAe?$AAs?$AAo?$AAu?$AAr?$AAc?$AAe?$AAs?$AA?$AA@ 0000000000008f00     EfiShellLib:Misc.obj
 0002:000015c8       ??_C@_1CC@IIFGLPAC@?$AAV?$AAo?$AAl?$AAu?$AAm?$AAe?$AA?5?$AAC?$AAo?$AAr?$AAr?$AAu?$AAp?$AAt?$AAe?$AAd?$AA?$AA@ 0000000000008f28     EfiShellLib:Misc.obj
 0002:000015f0       ??_C@_1BI@KDMJOJPB@?$AAV?$AAo?$AAl?$AAu?$AAm?$AAe?$AA?5?$AAF?$AAu?$AAl?$AAl?$AA?$AA@ 0000000000008f50     EfiShellLib:Misc.obj
 0002:00001608       ??_C@_1BC@CAEJNJKB@?$AAN?$AAo?$AA?5?$AAM?$AAe?$AAd?$AAi?$AAa?$AA?$AA@ 0000000000008f68     EfiShellLib:Misc.obj
 0002:00001620       ??_C@_1BM@CGJAEDJP@?$AAM?$AAe?$AAd?$AAi?$AAa?$AA?5?$AAC?$AAh?$AAa?$AAn?$AAg?$AAe?$AAd?$AA?$AA@ 0000000000008f80     EfiShellLib:Misc.obj
 0002:00001640       ??_C@_1BE@JGBFLIBK@?$AAN?$AAo?$AAt?$AA?5?$AAF?$AAo?$AAu?$AAn?$AAd?$AA?$AA@ 0000000000008fa0     EfiShellLib:Misc.obj
 0002:00001658       ??_C@_1BI@JIAAMNOB@?$AAN?$AAo?$AA?5?$AAR?$AAe?$AAs?$AAp?$AAo?$AAn?$AAs?$AAe?$AA?$AA@ 0000000000008fb8     EfiShellLib:Misc.obj
 0002:00001670       ??_C@_1BG@OHLJONME@?$AAN?$AAo?$AA?5?$AAM?$AAa?$AAp?$AAp?$AAi?$AAn?$AAg?$AA?$AA@ 0000000000008fd0     EfiShellLib:Misc.obj
 0002:00001688       ??_C@_1BC@GINMNENH@?$AAT?$AAi?$AAm?$AAe?$AA?5?$AAO?$AAu?$AAt?$AA?$AA@ 0000000000008fe8     EfiShellLib:Misc.obj
 0002:000016a0       ??_C@_1BI@MNIOFEEM@?$AAN?$AAo?$AAt?$AA?5?$AAS?$AAt?$AAa?$AAr?$AAt?$AAe?$AAd?$AA?$AA@ 0000000000009000     EfiShellLib:Misc.obj
 0002:000016b8       ??_C@_1CA@CNMNDJCM@?$AAA?$AAl?$AAr?$AAe?$AAa?$AAd?$AAy?$AA?5?$AAS?$AAt?$AAa?$AAr?$AAt?$AAe?$AAd?$AA?$AA@ 0000000000009018     EfiShellLib:Misc.obj
 0002:000016d8       ??_C@_1BA@JCPMFPEO@?$AAA?$AAb?$AAo?$AAr?$AAt?$AAe?$AAd?$AA?$AA@ 0000000000009038     EfiShellLib:Misc.obj
 0002:000016e8       ??_C@_1BG@GJCEBLMD@?$AAI?$AAC?$AAM?$AAP?$AA?5?$AAE?$AAr?$AAr?$AAo?$AAr?$AA?$AA@ 0000000000009048     EfiShellLib:Misc.obj
 0002:00001700       ??_C@_1BG@MPDDBEKI@?$AAT?$AAF?$AAT?$AAP?$AA?5?$AAE?$AAr?$AAr?$AAo?$AAr?$AA?$AA@ 0000000000009060     EfiShellLib:Misc.obj
 0002:00001718       ??_C@_1BO@MGICIKC@?$AAP?$AAr?$AAo?$AAt?$AAo?$AAc?$AAo?$AAl?$AA?5?$AAE?$AAr?$AAr?$AAo?$AAr?$AA?$AA@ 0000000000009078     EfiShellLib:Misc.obj
 0002:00001738       ??_C@_1CM@OIKNIHHI@?$AAW?$AAa?$AAr?$AAn?$AAi?$AAn?$AAg?$AA?5?$AAU?$AAn?$AAk?$AAn?$AAo?$AAw?$AAn?$AA?5?$AAG?$AAl?$AAy?$AAp?$AAh?$AA?$AA@ 0000000000009098     EfiShellLib:Misc.obj
 0002:00001768       ??_C@_1CO@MFHEGPPN@?$AAW?$AAa?$AAr?$AAn?$AAi?$AAn?$AAg?$AA?5?$AAD?$AAe?$AAl?$AAe?$AAt?$AAe?$AA?5?$AAF?$AAa?$AAi?$AAl?$AAu?$AAr?$AAe?$AA?$AA@ 00000000000090c8     EfiShellLib:Misc.obj
 0002:00001798       ??_C@_1CM@FKHEOEHO@?$AAW?$AAa?$AAr?$AAn?$AAi?$AAn?$AAg?$AA?5?$AAW?$AAr?$AAi?$AAt?$AAe?$AA?5?$AAF?$AAa?$AAi?$AAl?$AAu?$AAr?$AAe?$AA?$AA@ 00000000000090f8     EfiShellLib:Misc.obj
 0002:000017c8       ??_C@_1DC@LAAGMHGB@?$AAW?$AAa?$AAr?$AAn?$AAi?$AAn?$AAg?$AA?5?$AAB?$AAu?$AAf?$AAf?$AAe?$AAr?$AA?5?$AAT?$AAo?$AAo?$AA?5?$AAS?$AAm?$AAa?$AAl?$AAl?$AA?$AA@ 0000000000009128     EfiShellLib:Misc.obj
 0002:00001800       ??_C@_1CK@CPNEFGBF@?$AAI?$AAn?$AAc?$AAo?$AAm?$AAp?$AAa?$AAt?$AAi?$AAb?$AAl?$AAe?$AA?5?$AAV?$AAe?$AAr?$AAs?$AAi?$AAo?$AAn?$AA?$AA@ 0000000000009160     EfiShellLib:Misc.obj
 0002:00001830       ??_C@_1CG@CONBDECJ@?$AAS?$AAe?$AAc?$AAu?$AAr?$AAi?$AAt?$AAy?$AA?5?$AAV?$AAi?$AAo?$AAl?$AAa?$AAt?$AAi?$AAo?$AAn?$AA?$AA@ 0000000000009190     EfiShellLib:Misc.obj
 0002:00001858       ??_C@_1BE@LNMOCCLF@?$AAC?$AAR?$AAC?$AA?5?$AAE?$AAr?$AAr?$AAo?$AAr?$AA?$AA@ 00000000000091b8     EfiShellLib:Misc.obj
 0002:00001870       ??_C@_1CE@OCFFKMII@?$AAN?$AAo?$AAt?$AA?5?$AAA?$AAv?$AAa?$AAi?$AAl?$AAa?$AAb?$AAl?$AAe?$AA?5?$AAY?$AAe?$AAt?$AA?$AA@ 00000000000091d0     EfiShellLib:Misc.obj
 0002:00001898       ??_C@_1BK@BJJGPOPI@?$AAU?$AAn?$AAl?$AAo?$AAa?$AAd?$AA?5?$AAI?$AAm?$AAa?$AAg?$AAe?$AA?$AA@ 00000000000091f8     EfiShellLib:Misc.obj
 0002:000018b8       ??_C@_1DM@HHKGEKOD@?$AAW?$AAa?$AAr?$AAn?$AAi?$AAn?$AAg?$AA?5?$AAR?$AAe?$AAt?$AAu?$AAr?$AAn?$AA?5?$AAF?$AAr?$AAo?$AAm?$AA?5?$AAL?$AAo?$AAn?$AAg?$AA?5?$AAJ?$AAu?$AAm?$AAp?$AA?$AA@ 0000000000009218     EfiShellLib:Misc.obj
 0002:000018f4       ??_C@_15BHOFONJE@?$AA?$CF?$AAX?$AA?$AA@ 0000000000009254     EfiShellLib:Misc.obj
 0002:00001900       ??_C@_1DI@JHANLOAN@?$AA?$CF?$AA0?$AA2?$AAd?$AA?1?$AA?$CF?$AA0?$AA2?$AAd?$AA?1?$AA?$CF?$AA0?$AA2?$AAd?$AA?5?$AA?5?$AA?$CF?$AA0?$AA2?$AAd?$AA?3?$AA?$CF?$AA0?$AA2?$AAd?$AA?$CF?$AAc?$AA?$AA@ 0000000000009260     EfiShellLib:Misc.obj
 0002:00001938       ??_C@_00CNPNBAHC@?$AA@     0000000000009298     EfiShellLib:Misc.obj
 0002:0000193c       ??_C@_03LKLGDMJI@eng?$AA@  000000000000929c     EfiShellLib:Misc.obj
 0002:00001940       ??_C@_05JJLPJMLG@en?9US?$AA@ 00000000000092a0     EfiShellLib:Misc.obj
 0002:00001948       ca                         00000000000092a8     EfiShellLib:Misc.obj
 0002:00001960       MainStatusBarConst         00000000000092c0     Edit:libStatusBar.obj
 0002:00001968       MainTitleBarConst          00000000000092c8     Edit:libTitleBar.obj
 0002:00001970       MainInputBarConst          00000000000092d0     Edit:libInputBar.obj
 0002:00001988       ShellLibInitialized        00000000000092e8     EfiShellLib:Data.obj
 0002:00001989       HiiInitialized             00000000000092e9     EfiShellLib:Init.obj
 0002:00001990       HiiLibHandle               00000000000092f0     EfiShellLib:Init.obj
 0002:00001998       NumStrings                 00000000000092f8     EfiShellLib:Init.obj
 0002:000019a8       gLibHiiDatabase            0000000000009308     EfiShellLib:HiiSupport.obj
 0002:000019b0       gLibHiiString              0000000000009310     EfiShellLib:HiiSupport.obj
 0002:000019b8       mHiiProtocolsInitialized   0000000000009318     EfiShellLib:HiiSupport.obj
 0002:000019c0       RT                         0000000000009320     <common>
 0002:000019e0       mPrintMode                 0000000000009340     <common>
 0002:00001a18       SE                         0000000000009378     <common>
 0002:00001a20       BS                         0000000000009380     <common>
 0002:00001a28       ST                         0000000000009388     <common>
 0002:00001a30       SI                         0000000000009390     <common>
 0002:00001a38       SE2                        0000000000009398     <common>
 0002:00001a40       MainInputBar               00000000000093a0     <common>
 0002:00001a58       MainMenuBar                00000000000093b8     <common>
 0002:00001a60       MainTitleBar               00000000000093c0     <common>
 0002:00001a68       StatusStringChanged        00000000000093c8     <common>
 0002:00001a70       MainStatusBarBackupVar     00000000000093d0     <common>
 0002:00001a78       MainStatusBar              00000000000093d8     <common>
 0002:00001a80       StatusBarNeedRefresh       00000000000093e0     <common>
 0002:00001a88       OriginalMode               00000000000093e8     <common>
 0002:00001a90       OriginalColors             00000000000093f0     <common>
 0002:00001a94       EditorExit                 00000000000093f4     <common>
 0002:00001a95       EditorMouseAction          00000000000093f5     <common>
 0002:00001a96       EditorFirst                00000000000093f6     <common>
 0002:00001aa0       MainEditor                 0000000000009400     <common>
 0002:00001b00       FileBuffer                 0000000000009460     <common>
 0002:00001b78       FileBufferMouseNeedRefresh 00000000000094d8     <common>
 0002:00001b80       FileBufferBackupVar        00000000000094e0     <common>
 0002:00001bf8       FileBufferNeedRefresh      0000000000009558     <common>
 0002:00001bf9       FileBufferOnlyLineNeedRefresh 0000000000009559     <common>
 0002:00001c00       ImageHandleBackup          0000000000009560     <common>
 0002:00001c08       HiiHandle                  0000000000009568     <common>

 entry point at        0001:00000000

 Static symbols

 0001:000047c8       MainCommandFileType        0000000000004a68 f   Edit:libMenuBar.obj
 0002:00001950       Hex                        00000000000092b0     EfiShellLib:Misc.obj
 0002:000019a0       mShellEnv                  0000000000009300     EfiShellLib:Misc.obj
 0003:00000000       $pdata$InitializeEFIEditor 0000000000009580     Edit:main.obj
 0003:0000000c       $pdata$EditorClearLine     000000000000958c     Edit:libMisc.obj
 0003:00000018       $pdata$LineDup             0000000000009598     Edit:libMisc.obj
 0003:00000024       $pdata$LineCat             00000000000095a4     Edit:libMisc.obj
 0003:00000030       $pdata$FileBufferInit      00000000000095b0     Edit:libFileBuffer.obj
 0003:0000003c       $pdata$FileBufferRestoreMousePosition 00000000000095bc     Edit:libFileBuffer.obj
 0003:00000048       $pdata$FileBufferFreeLines 00000000000095c8     Edit:libFileBuffer.obj
 0003:00000054       $pdata$FileBufferPrintLine 00000000000095d4     Edit:libFileBuffer.obj
 0003:00000060       $pdata$FileBufferRestorePosition 00000000000095e0     Edit:libFileBuffer.obj
 0003:0000006c       $pdata$FileBufferRefresh   00000000000095ec     Edit:libFileBuffer.obj
 0003:00000078       $pdata$FileBufferCreateLine 00000000000095f8     Edit:libFileBuffer.obj
 0003:00000084       $pdata$FileBufferSetFileName 0000000000009604     Edit:libFileBuffer.obj
 0003:00000090       $pdata$FileBufferGetFileInfo 0000000000009610     Edit:libFileBuffer.obj
 0003:0000009c       $pdata$FileBufferRead      000000000000961c     Edit:libFileBuffer.obj
 0003:000000a8       $pdata$FileBufferSave      0000000000009628     Edit:libFileBuffer.obj
 0003:000000b4       $pdata$FileBufferHandleInput 0000000000009634     Edit:libFileBuffer.obj
 0003:000000c0       $pdata$FileBufferAddChar   0000000000009640     Edit:libFileBuffer.obj
 0003:000000cc       $pdata$FileBufferMovePosition 000000000000964c     Edit:libFileBuffer.obj
 0003:000000d8       $pdata$FileBufferScrollRight 0000000000009658     Edit:libFileBuffer.obj
 0003:000000e4       $pdata$FileBufferScrollLeft 0000000000009664     Edit:libFileBuffer.obj
 0003:000000f0       $pdata$FileBufferDoReturn  0000000000009670     Edit:libFileBuffer.obj
 0003:000000fc       $pdata$FileBufferDoBackspace 000000000000967c     Edit:libFileBuffer.obj
 0003:00000108       $pdata$FileBufferDoDelete  0000000000009688     Edit:libFileBuffer.obj
 0003:00000114       $pdata$FileBufferPasteLine 0000000000009694     Edit:libFileBuffer.obj
 0003:00000120       $pdata$FileBufferSearch    00000000000096a0     Edit:libFileBuffer.obj
 0003:0000012c       $pdata$FileBufferReplace   00000000000096ac     Edit:libFileBuffer.obj
 0003:00000138       $pdata$FileBufferReplaceAll 00000000000096b8     Edit:libFileBuffer.obj
 0003:00000144       $pdata$MainEditorInit      00000000000096c4     Edit:libEditor.obj
 0003:00000150       $pdata$MainEditorCleanup   00000000000096d0     Edit:libEditor.obj
 0003:0000015c       $pdata$MainEditorRefresh   00000000000096dc     Edit:libEditor.obj
 0003:00000168       $pdata$MainEditorKeyInput  00000000000096e8     Edit:libEditor.obj
 0003:00000174       $pdata$MainEditorBackup    00000000000096f4     Edit:libEditor.obj
 0003:00000180       $pdata$MainStatusBarRefresh 0000000000009700     Edit:libStatusBar.obj
 0003:0000018c       $pdata$MainStatusBarSetStatusString 000000000000970c     Edit:libStatusBar.obj
 0003:00000198       $pdata$MainTitleBarRefresh 0000000000009718     Edit:libTitleBar.obj
 0003:000001a4       $pdata$MainCommandOpenFile 0000000000009724     Edit:libMenuBar.obj
 0003:000001b0       $pdata$MainCommandSaveFile 0000000000009730     Edit:libMenuBar.obj
 0003:000001bc       $pdata$MainCommandExit     000000000000973c     Edit:libMenuBar.obj
 0003:000001c8       $pdata$MainCommandCutLine  0000000000009748     Edit:libMenuBar.obj
 0003:000001d4       $pdata$MainCommandPasteLine 0000000000009754     Edit:libMenuBar.obj
 0003:000001e0       $pdata$MainCommandGotoLine 0000000000009760     Edit:libMenuBar.obj
 0003:000001ec       $pdata$MainCommandSearch   000000000000976c     Edit:libMenuBar.obj
 0003:000001f8       $pdata$MainCommandSearchReplace 0000000000009778     Edit:libMenuBar.obj
 0003:00000204       $pdata$MainCommandFileType 0000000000009784     Edit:libMenuBar.obj
 0003:00000210       $pdata$MainInputBarPrintInput 0000000000009790     Edit:libInputBar.obj
 0003:0000021c       $pdata$MainInputBarRefresh 000000000000979c     Edit:libInputBar.obj
 0003:00000228       $pdata$MainInputBarSetPrompt 00000000000097a8     Edit:libInputBar.obj
 0003:00000234       $pdata$MainInputBarSetStringSize 00000000000097b4     Edit:libInputBar.obj
 0003:00000240       $pdata$LibCheckVarGetFlag  00000000000097c0     EfiShellLib:VarCheck.obj
 0003:0000024c       $pdata$LibCheckVariables   00000000000097cc     EfiShellLib:VarCheck.obj
 0003:00000258       $pdata$InitializeUnicodeCollationSupportWorker 00000000000097d8     EfiShellLib:Init.obj
 0003:00000264       $pdata$LibInitializeStrings 00000000000097e4     EfiShellLib:Init.obj
 0003:00000270       $pdata$LibInitializeShellApplication 00000000000097f0     EfiShellLib:Init.obj
 0003:0000027c       $pdata$_SPrint             00000000000097fc     EfiShellLib:IO.obj
 0003:00000288       $pdata$_PoolCatPrint       0000000000009808     EfiShellLib:IO.obj
 0003:00000294       $pdata$SPrint              0000000000009814     EfiShellLib:IO.obj
 0003:000002a0       $pdata$Print               0000000000009820     EfiShellLib:IO.obj
 0003:000002ac       $pdata$PoolPrint           000000000000982c     EfiShellLib:IO.obj
 0003:000002b8       $pdata$PrintToken          0000000000009838     EfiShellLib:IO.obj
 0003:000002c4       $pdata$PrintAt             0000000000009844     EfiShellLib:IO.obj
 0003:000002d0       $pdata$_IPrint             0000000000009850     EfiShellLib:IO.obj
 0003:000002dc       $pdata$PFLUSH              000000000000985c     EfiShellLib:IO.obj
 0003:000002e8       $pdata$PSETATTR            0000000000009868     EfiShellLib:IO.obj
 0003:000002f4       $pdata$PPUTC               0000000000009874     EfiShellLib:IO.obj
 0003:00000300       $pdata$PITEM               0000000000009880     EfiShellLib:IO.obj
 0003:0000030c       $pdata$_Print              000000000000988c     EfiShellLib:IO.obj
 0003:00000318       $pdata$SetPageBreak        0000000000009898     EfiShellLib:IO.obj
 0003:00000324       $pdata$IFlushWithPageBreak 00000000000098a4     EfiShellLib:IO.obj
 0003:00000330       $pdata$_PoolPrint          00000000000098b0     EfiShellLib:IO.obj
 0003:0000033c       $pdata$StrStr              00000000000098bc     EfiShellLib:Str.obj
 0003:00000348       $pdata$MetaMatch           00000000000098c8     EfiShellLib:Str.obj
 0003:00000354       $pdata$StrDuplicate        00000000000098d4     EfiShellLib:Str.obj
 0003:00000360       $pdata$AllocatePool        00000000000098e0     EfiShellLib:Mem.obj
 0003:0000036c       $pdata$ReallocatePool      00000000000098ec     EfiShellLib:Mem.obj
 0003:00000378       $pdata$AllocateZeroPool    00000000000098f8     EfiShellLib:Mem.obj
 0003:00000384       $pdata$LibGetVariableAndSize 0000000000009904     EfiShellLib:Misc.obj
 0003:00000390       $pdata$GrowBuffer          0000000000009910     EfiShellLib:Misc.obj
 0003:0000039c       $pdata$GuidToString        000000000000991c     EfiShellLib:Misc.obj
 0003:000003a8       $pdata$ValueToString       0000000000009928     EfiShellLib:Misc.obj
 0003:000003b4       $pdata$GetBestLanguage     0000000000009934     EfiShellLib:Misc.obj
 0003:000003c0       $pdata$LibSelectBestLanguage 0000000000009940     EfiShellLib:Misc.obj
 0003:000003cc       $pdata$LibDevicePathToInterface 000000000000994c     EfiShellLib:DPath.obj
 0003:000003d8       $pdata$LocateHiiProtocols  0000000000009958     EfiShellLib:HiiSupport.obj
 0003:000003e4       $pdata$PreparePackageList  0000000000009964     EfiShellLib:HiiSupport.obj
 0003:000003f0       $pdata$LibGetString        0000000000009970     EfiShellLib:HiiSupport.obj
 0003:000003fc       $pdata$LibLocateHandle     000000000000997c     EfiShellLib:Handle.obj
 0003:00000408       $pdata$LibLocateProtocol   0000000000009988     EfiShellLib:Handle.obj
 0004:00000000       $unwind$InitializeEFIEditor 00000000000099a0     Edit:main.obj
 0004:00000018       $unwind$EditorClearLine    00000000000099b8     Edit:libMisc.obj
 0004:00000024       $unwind$PPUTC              00000000000099c4     EfiShellLib:IO.obj
 0004:00000024       $unwind$PSETATTR           00000000000099c4     EfiShellLib:IO.obj
 0004:00000024       $unwind$FileBufferRefresh  00000000000099c4     Edit:libFileBuffer.obj
 0004:00000024       $unwind$FileBufferDoDelete 00000000000099c4     Edit:libFileBuffer.obj
 0004:00000024       $unwind$MainCommandExit    00000000000099c4     Edit:libMenuBar.obj
 0004:00000024       $unwind$LineDup            00000000000099c4     Edit:libMisc.obj
 0004:00000024       $unwind$MainCommandCutLine 00000000000099c4     Edit:libMenuBar.obj
 0004:00000024       $unwind$LibCheckVarGetFlag 00000000000099c4     EfiShellLib:VarCheck.obj
 0004:00000024       $unwind$FileBufferHandleInput 00000000000099c4     Edit:libFileBuffer.obj
 0004:00000024       $unwind$FileBufferFreeLines 00000000000099c4     Edit:libFileBuffer.obj
 0004:00000030       $unwind$MainInputBarPrintInput 00000000000099d0     Edit:libInputBar.obj
 0004:00000030       $unwind$MainCommandSearch  00000000000099d0     Edit:libMenuBar.obj
 0004:00000030       $unwind$FileBufferReplace  00000000000099d0     Edit:libFileBuffer.obj
 0004:00000030       $unwind$LineCat            00000000000099d0     Edit:libMisc.obj
 0004:00000030       $unwind$FileBufferAddChar  00000000000099d0     Edit:libFileBuffer.obj
 0004:00000030       $unwind$PITEM              00000000000099d0     EfiShellLib:IO.obj
 0004:00000048       $unwind$FileBufferInit     00000000000099e8     Edit:libFileBuffer.obj
 0004:00000054       $unwind$FileBufferRestoreMousePosition 00000000000099f4     Edit:libFileBuffer.obj
 0004:00000070       $unwind$FileBufferPrintLine 0000000000009a10     Edit:libFileBuffer.obj
 0004:00000080       $unwind$FileBufferScrollRight 0000000000009a20     Edit:libFileBuffer.obj
 0004:00000080       $unwind$FileBufferScrollLeft 0000000000009a20     Edit:libFileBuffer.obj
 0004:00000080       $unwind$LocateHiiProtocols 0000000000009a20     EfiShellLib:HiiSupport.obj
 0004:00000080       $unwind$MainCommandFileType 0000000000009a20     Edit:libMenuBar.obj
 0004:00000080       $unwind$FileBufferPasteLine 0000000000009a20     Edit:libFileBuffer.obj
 0004:00000080       $unwind$AllocatePool       0000000000009a20     EfiShellLib:Mem.obj
 0004:00000080       $unwind$MainCommandPasteLine 0000000000009a20     Edit:libMenuBar.obj
 0004:00000080       $unwind$MainEditorBackup   0000000000009a20     Edit:libEditor.obj
 0004:00000080       $unwind$FileBufferRestorePosition 0000000000009a20     Edit:libFileBuffer.obj
 0004:00000088       $unwind$FileBufferCreateLine 0000000000009a28     Edit:libFileBuffer.obj
 0004:00000088       $unwind$MainInputBarSetPrompt 0000000000009a28     Edit:libInputBar.obj
 0004:00000088       $unwind$AllocateZeroPool   0000000000009a28     EfiShellLib:Mem.obj
 0004:00000088       $unwind$MainEditorCleanup  0000000000009a28     Edit:libEditor.obj
 0004:00000088       $unwind$MainInputBarSetStringSize 0000000000009a28     Edit:libInputBar.obj
 0004:00000088       $unwind$MainStatusBarSetStatusString 0000000000009a28     Edit:libStatusBar.obj
 0004:00000088       $unwind$_SPrint            0000000000009a28     EfiShellLib:IO.obj
 0004:00000088       $unwind$MainCommandGotoLine 0000000000009a28     Edit:libMenuBar.obj
 0004:00000090       $unwind$FileBufferDoBackspace 0000000000009a30     Edit:libFileBuffer.obj
 0004:00000090       $unwind$MainCommandOpenFile 0000000000009a30     Edit:libMenuBar.obj
 0004:00000090       $unwind$_PoolPrint         0000000000009a30     EfiShellLib:IO.obj
 0004:00000090       $unwind$FileBufferSetFileName 0000000000009a30     Edit:libFileBuffer.obj
 0004:00000090       $unwind$StrDuplicate       0000000000009a30     EfiShellLib:Str.obj
 0004:000000a0       $unwind$FileBufferGetFileInfo 0000000000009a40     Edit:libFileBuffer.obj
 0004:000000b0       $unwind$FileBufferRead     0000000000009a50     Edit:libFileBuffer.obj
 0004:000000c8       $unwind$FileBufferSave     0000000000009a68     Edit:libFileBuffer.obj
 0004:000000e0       $unwind$FileBufferMovePosition 0000000000009a80     Edit:libFileBuffer.obj
 0004:000000e8       $unwind$FileBufferDoReturn 0000000000009a88     Edit:libFileBuffer.obj
 0004:000000e8       $unwind$IFlushWithPageBreak 0000000000009a88     EfiShellLib:IO.obj
 0004:00000100       $unwind$GrowBuffer         0000000000009aa0     EfiShellLib:Misc.obj
 0004:00000100       $unwind$ReallocatePool     0000000000009aa0     EfiShellLib:Mem.obj
 0004:00000100       $unwind$MainTitleBarRefresh 0000000000009aa0     Edit:libTitleBar.obj
 0004:00000100       $unwind$FileBufferSearch   0000000000009aa0     Edit:libFileBuffer.obj
 0004:00000114       $unwind$MainCommandSearchReplace 0000000000009ab4     Edit:libMenuBar.obj
 0004:00000114       $unwind$StrStr             0000000000009ab4     EfiShellLib:Str.obj
 0004:00000114       $unwind$FileBufferReplaceAll 0000000000009ab4     Edit:libFileBuffer.obj
 0004:00000130       $unwind$MainEditorInit     0000000000009ad0     Edit:libEditor.obj
 0004:0000013c       $unwind$MainEditorRefresh  0000000000009adc     Edit:libEditor.obj
 0004:00000154       $unwind$MainEditorKeyInput 0000000000009af4     Edit:libEditor.obj
 0004:00000168       $unwind$MainStatusBarRefresh 0000000000009b08     Edit:libStatusBar.obj
 0004:00000168       $unwind$ValueToString      0000000000009b08     EfiShellLib:Misc.obj
 0004:00000170       $unwind$MainCommandSaveFile 0000000000009b10     Edit:libMenuBar.obj
 0004:00000188       $unwind$MainInputBarRefresh 0000000000009b28     Edit:libInputBar.obj
 0004:00000198       $unwind$LibCheckVariables  0000000000009b38     EfiShellLib:VarCheck.obj
 0004:000001b0       $unwind$InitializeUnicodeCollationSupportWorker 0000000000009b50     EfiShellLib:Init.obj
 0004:000001c4       $unwind$LibInitializeStrings 0000000000009b64     EfiShellLib:Init.obj
 0004:000001d0       $unwind$LibInitializeShellApplication 0000000000009b70     EfiShellLib:Init.obj
 0004:000001e0       $unwind$_PoolCatPrint      0000000000009b80     EfiShellLib:IO.obj
 0004:000001e8       $unwind$SPrint             0000000000009b88     EfiShellLib:IO.obj
 0004:000001f4       $unwind$Print              0000000000009b94     EfiShellLib:IO.obj
 0004:000001fc       $unwind$PoolPrint          0000000000009b9c     EfiShellLib:IO.obj
 0004:00000204       $unwind$PrintToken         0000000000009ba4     EfiShellLib:IO.obj
 0004:00000210       $unwind$PrintAt            0000000000009bb0     EfiShellLib:IO.obj
 0004:00000218       $unwind$_IPrint            0000000000009bb8     EfiShellLib:IO.obj
 0004:00000228       $unwind$PFLUSH             0000000000009bc8     EfiShellLib:IO.obj
 0004:00000234       $unwind$_Print             0000000000009bd4     EfiShellLib:IO.obj
 0004:00000254       $unwind$SetPageBreak       0000000000009bf4     EfiShellLib:IO.obj
 0004:00000264       $unwind$MetaMatch          0000000000009c04     EfiShellLib:Str.obj
 0004:00000274       $unwind$LibGetVariableAndSize 0000000000009c14     EfiShellLib:Misc.obj
 0004:00000284       $unwind$GuidToString       0000000000009c24     EfiShellLib:Misc.obj
 0004:0000029c       $unwind$GetBestLanguage    0000000000009c3c     EfiShellLib:Misc.obj
 0004:000002ac       $unwind$LibSelectBestLanguage 0000000000009c4c     EfiShellLib:Misc.obj
 0004:000002bc       $unwind$LibDevicePathToInterface 0000000000009c5c     EfiShellLib:DPath.obj
 0004:000002c4       $unwind$PreparePackageList 0000000000009c64     EfiShellLib:HiiSupport.obj
 0004:000002d8       $unwind$LibGetString       0000000000009c78     EfiShellLib:HiiSupport.obj
 0004:000002f4       $unwind$LibLocateHandle    0000000000009c94     EfiShellLib:Handle.obj
 0004:00000308       $unwind$LibLocateProtocol  0000000000009ca8     EfiShellLib:Handle.obj
