 Dblk

 Timestamp is 5bc88639 (Thu Oct 18 21:10:17 2018)

 Preferred load address is 0000000000000000

 Start         Length     Name                   Class
 0001:00000000 000047f0H .text$mn                CODE
 0002:00000000 000034c0H .data                   DATA
 0002:000034c0 00000fe2H .rdata                  DATA
 0002:000044c0 000000c8H .bss                    DATA
 0003:00000000 0000030cH .pdata                  DATA
 0004:00000000 000002dcH .xdata                  DATA

  Address         Publics by Value              Rva+Base               Lib:Object

 0000:00000000       __guard_fids_table         0000000000000000     <absolute>
 0000:00000000       __guard_flags              0000000000000000     <absolute>
 0000:00000000       __guard_fids_count         0000000000000000     <absolute>
 0001:00000000       DumpBlockDev               00000000000002a0 f   Dblk:dblk.obj
 0001:00000468       DblkStructsPrint           0000000000000708 f   Dblk:efidump.obj
 0001:00000598       DblkTableHeaderPrint       0000000000000838 f   Dblk:efidump.obj
 0001:00000684       DblkDumpGenericHeader      0000000000000924 f   Dblk:efidump.obj
 0001:000006b8       DblkDumpPartition          0000000000000958 f   Dblk:efidump.obj
 0001:00000730       DblkDumpSystemTable        00000000000009d0 f   Dblk:efidump.obj
 0001:00000948       DblkValidBPB               0000000000000be8 f   Dblk:efidump.obj
 0001:00000a78       DblkDumpBpb                0000000000000d18 f   Dblk:efidump.obj
 0001:00000bb4       LibCheckVarGetFlag         0000000000000e54 f   EfiShellLib:VarCheck.obj
 0001:00000bf8       iCompareSetFlag            0000000000000e98 f   EfiShellLib:VarCheck.obj
 0001:00000c54       LibCheckVariables          0000000000000ef4 f   EfiShellLib:VarCheck.obj
 0001:00000fa0       LibGetVariableAndSize      0000000000001240 f   EfiShellLib:Misc.obj
 0001:0000102c       GrowBuffer                 00000000000012cc f   EfiShellLib:Misc.obj
 0001:000010cc       GuidToString               000000000000136c f   EfiShellLib:Misc.obj
 0001:000011dc       StatusToString             000000000000147c f   EfiShellLib:Misc.obj
 0001:0000157c       LibGetSystemConfigurationTable 000000000000181c f   EfiShellLib:Misc.obj
 0001:00001610       ValidMBR                   00000000000018b0 f   EfiShellLib:Misc.obj
 0001:0000177c       ValueToString              0000000000001a1c f   EfiShellLib:Misc.obj
 0001:00001864       DumpHex                    0000000000001b04 f   EfiShellLib:Misc.obj
 0001:00001984       GetBestLanguage            0000000000001c24 f   EfiShellLib:Misc.obj
 0001:00001ae0       LibSelectBestLanguage      0000000000001d80 f   EfiShellLib:Misc.obj
 0001:00001b74       InitializeUnicodeCollationSupportWorker 0000000000001e14 f   EfiShellLib:Init.obj
 0001:00001c70       LibInitializeStrings       0000000000001f10 f   EfiShellLib:Init.obj
 0001:00001d60       LibInitializeShellApplication 0000000000002000 f   EfiShellLib:Init.obj
 0001:00001fc8       UnpackDevicePath           0000000000002268 f   EfiShellLib:DPath.obj
 0001:000020b4       _DevPathPci                0000000000002354 f   EfiShellLib:DPath.obj
 0001:000020cc       _DevPathPccard             000000000000236c f   EfiShellLib:DPath.obj
 0001:000020e0       _DevPathMemMap             0000000000002380 f   EfiShellLib:DPath.obj
 0001:00002108       _DevPathController         00000000000023a8 f   EfiShellLib:DPath.obj
 0001:00002118       _DevPathVendor             00000000000023b8 f   EfiShellLib:DPath.obj
 0001:00002494       _DevPathAcpi               0000000000002734 f   EfiShellLib:DPath.obj
 0001:000024c0       _DevPathExtendedAcpi       0000000000002760 f   EfiShellLib:DPath.obj
 0001:00002608       _DevPathAdrAcpi            00000000000028a8 f   EfiShellLib:DPath.obj
 0001:00002694       _DevPathAtapi              0000000000002934 f   EfiShellLib:DPath.obj
 0001:000026cc       _DevPathScsi               000000000000296c f   EfiShellLib:DPath.obj
 0001:000026e4       _DevPathFibre              0000000000002984 f   EfiShellLib:DPath.obj
 0001:000026f8       _DevPath1394               0000000000002998 f   EfiShellLib:DPath.obj
 0001:00002708       _DevPathUsb                00000000000029a8 f   EfiShellLib:DPath.obj
 0001:00002720       _DevPathUsbWWID            00000000000029c0 f   EfiShellLib:DPath.obj
 0001:00002748       _DevPathLogicalUnit        00000000000029e8 f   EfiShellLib:DPath.obj
 0001:0000275c       _DevPathUsbClass           00000000000029fc f   EfiShellLib:DPath.obj
 0001:00002798       _DevPathSata               0000000000002a38 f   EfiShellLib:DPath.obj
 0001:000027e0       _DevPathI2O                0000000000002a80 f   EfiShellLib:DPath.obj
 0001:000027f0       _DevPathMacAddr            0000000000002a90 f   EfiShellLib:DPath.obj
 0001:0000286c       _DevPathIPv4               0000000000002b0c f   EfiShellLib:DPath.obj
 0001:000028a8       _DevPathIPv6               0000000000002b48 f   EfiShellLib:DPath.obj
 0001:0000299c       _DevPathInfiniBand         0000000000002c3c f   EfiShellLib:DPath.obj
 0001:000029d4       _DevPathUart               0000000000002c74 f   EfiShellLib:DPath.obj
 0001:00002ac8       _DevPathiSCSI              0000000000002d68 f   EfiShellLib:DPath.obj
 0001:00002bc0       _DevPathHardDrive          0000000000002e60 f   EfiShellLib:DPath.obj
 0001:00002c20       _DevPathCDROM              0000000000002ec0 f   EfiShellLib:DPath.obj
 0001:00002c30       _DevPathFilePath           0000000000002ed0 f   EfiShellLib:DPath.obj
 0001:00002cb8       _DevPathMediaProtocol      0000000000002f58 f   EfiShellLib:DPath.obj
 0001:00002cc8       _DevPathFvFilePath         0000000000002f68 f   EfiShellLib:DPath.obj
 0001:00002cd8       _DevPathRelativeOffsetRange 0000000000002f78 f   EfiShellLib:DPath.obj
 0001:00002cec       _DevPathBssBss             0000000000002f8c f   EfiShellLib:DPath.obj
 0001:00002d6c       _DevPathEndInstance        000000000000300c f   EfiShellLib:DPath.obj
 0001:00002d78       _DevPathNodeUnknown        0000000000003018 f   EfiShellLib:DPath.obj
 0001:00002d84       _DevPathFvPath             0000000000003024 f   EfiShellLib:DPath.obj
 0001:00002d94       LibDevicePathToStr         0000000000003034 f   EfiShellLib:DPath.obj
 0001:00002ef4       LibDevicePathToInterface   0000000000003194 f   EfiShellLib:DPath.obj
 0001:00002f7c       StrTrim                    000000000000321c f   EfiShellLib:Str.obj
 0001:0000302c       LibStubMetaiMatch          00000000000032cc f   EfiShellLib:Str.obj
 0001:00003038       MetaMatch                  00000000000032d8 f   EfiShellLib:Str.obj
 0001:00003250       LibStubStriCmp             00000000000034f0 f   EfiShellLib:Str.obj
 0001:000032d4       LibStubStrUpr              0000000000003574 f   EfiShellLib:Str.obj
 0001:000032f4       LibStubStrLwr              0000000000003594 f   EfiShellLib:Str.obj
 0001:00003314       StrToUInt                  00000000000035b4 f   EfiShellLib:Str.obj
 0001:000033f0       CopyMem                    0000000000003690 f   EfiShellLib:Mem.obj
 0001:00003434       AllocatePool               00000000000036d4 f   EfiShellLib:Mem.obj
 0001:00003468       ReallocatePool             0000000000003708 f   EfiShellLib:Mem.obj
 0001:000034dc       AllocateZeroPool           000000000000377c f   EfiShellLib:Mem.obj
 0001:00003508       _SPrint                    00000000000037a8 f   EfiShellLib:IO.obj
 0001:00003580       _PoolCatPrint              0000000000003820 f   EfiShellLib:IO.obj
 0001:000035cc       SPrint                     000000000000386c f   EfiShellLib:IO.obj
 0001:00003640       Print                      00000000000038e0 f   EfiShellLib:IO.obj
 0001:00003678       PrintToken                 0000000000003918 f   EfiShellLib:IO.obj
 0001:00003744       CatPrint                   00000000000039e4 f   EfiShellLib:IO.obj
 0001:00003780       _IPrint                    0000000000003a20 f   EfiShellLib:IO.obj
 0001:00003834       PFLUSH                     0000000000003ad4 f   EfiShellLib:IO.obj
 0001:000038f4       PSETATTR                   0000000000003b94 f   EfiShellLib:IO.obj
 0001:00003938       PPUTC                      0000000000003bd8 f   EfiShellLib:IO.obj
 0001:000039b4       PITEM                      0000000000003c54 f   EfiShellLib:IO.obj
 0001:00003ae4       _Print                     0000000000003d84 f   EfiShellLib:IO.obj
 0001:000040fc       SetPageBreak               000000000000439c f   EfiShellLib:IO.obj
 0001:00004210       IFlushWithPageBreak        00000000000044b0 f   EfiShellLib:IO.obj
 0001:00004354       _PoolPrint                 00000000000045f4 f   EfiShellLib:IO.obj
 0001:000043d8       LocateHiiProtocols         0000000000004678 f   EfiShellLib:HiiSupport.obj
 0001:00004424       PreparePackageList         00000000000046c4 f   EfiShellLib:HiiSupport.obj
 0001:00004518       LibGetString               00000000000047b8 f   EfiShellLib:HiiSupport.obj
 0001:000046a8       LibLocateHandle            0000000000004948 f   EfiShellLib:Handle.obj
 0001:0000474c       LibLocateProtocol          00000000000049ec f   EfiShellLib:Handle.obj
 0002:00000000       EfiDblkGuid                0000000000004aa0     Dblk:dblk.obj
 0002:00000010       DblkCheckList              0000000000004ab0     Dblk:dblk.obj
 0002:00000060       DblkTableHeader            0000000000004b00     Dblk:efidump.obj
 0002:000000e0       DblkStrings                0000000000004b80     Dblk:AutoGen.obj
 0002:000030c8       ShellInterfaceProtocol     0000000000007b68     EfiShellLib:Misc.obj
 0002:000030d8       SESGuid                    0000000000007b78     EfiShellLib:Init.obj
 0002:000030e8       ShellEnvProtocol           0000000000007b88     EfiShellLib:Data.obj
 0002:000030f8       PoolAllocationType         0000000000007b98     EfiShellLib:Data.obj
 0002:00003100       LibStubUnicodeInterface    0000000000007ba0     EfiShellLib:Data.obj
 0002:00003138       UnicodeInterface           0000000000007bd8     EfiShellLib:Data.obj
 0002:00003140       mEfiDevicePathMessagingUartFlowControlGuid 0000000000007be0     EfiShellLib:DPath.obj
 0002:00003150       DevPathTable               0000000000007bf0     EfiShellLib:DPath.obj
 0002:00003390       mEfiDevicePathMessagingSASGuid 0000000000007e30     EfiShellLib:DPath.obj
 0002:000033a0       gEfiBlockIoProtocolGuid    0000000000007e40     EfiProtocolLib:BlockIo.obj
 0002:000033b0       gEfiDevicePathProtocolGuid 0000000000007e50     EfiProtocolLib:DevicePath.obj
 0002:000033c0       gEfiLoadedImageProtocolGuid 0000000000007e60     EfiProtocolLib:LoadedImage.obj
 0002:000033d0       gEfiUnicodeCollation2ProtocolGuid 0000000000007e70     EfiProtocolLib:UnicodeCollation2.obj
 0002:000033e0       gEfiUnicodeCollationProtocolGuid 0000000000007e80     EfiProtocolLib:UnicodeCollation.obj
 0002:000033f0       gEfiDevicePathToTextProtocolGuid 0000000000007e90     EfiProtocolLib:DevicePathToText.obj
 0002:00003400       gEfiDebugPortProtocolGuid  0000000000007ea0     EfiProtocolLib:DebugPort.obj
 0002:00003410       gEfiHiiStringProtocolGuid  0000000000007eb0     EfiProtocolLib:HiiString.obj
 0002:00003420       gEfiHiiDatabaseProtocolGuid 0000000000007ec0     EfiProtocolLib:HiiDatabase.obj
 0002:00003430       gEfiAcpiTableGuid          0000000000007ed0     EfiGuidLib:Acpi.obj
 0002:00003440       gEfiAcpi20TableGuid        0000000000007ee0     EfiGuidLib:Acpi.obj
 0002:00003450       gEfiMpsTableGuid           0000000000007ef0     EfiGuidLib:Mps.obj
 0002:00003460       gEfiSmbiosTableGuid        0000000000007f00     EfiGuidLib:SmBios.obj
 0002:00003470       gEfiGlobalVariableGuid     0000000000007f10     EfiGuidLib:GlobalVariable.obj
 0002:00003480       gEfiVTUTF8Guid             0000000000007f20     EfiGuidLib:PcAnsi.obj
 0002:00003490       gEfiVT100Guid              0000000000007f30     EfiGuidLib:PcAnsi.obj
 0002:000034a0       gEfiVT100PlusGuid          0000000000007f40     EfiGuidLib:PcAnsi.obj
 0002:000034b0       gEfiPcAnsiGuid             0000000000007f50     EfiGuidLib:PcAnsi.obj
 0002:000034c0       ??_C@_15GECAHHDM@?$AA?9?$AAb?$AA?$AA@ 0000000000007f60     Dblk:dblk.obj
 0002:000034c8       ??_C@_15FNEHKAED@?$AA?9?$AA?$DP?$AA?$AA@ 0000000000007f68     Dblk:dblk.obj
 0002:000034d0       ??_C@_19DGCMIEJL@?$AA0?$AA?4?$AA9?$AA9?$AA?$AA@ 0000000000007f70     Dblk:dblk.obj
 0002:000034e0       ??_C@_19MFKGCLGG@?$AAd?$AAb?$AAl?$AAk?$AA?$AA@ 0000000000007f80     Dblk:dblk.obj
 0002:000034ec       ??_C@_13LBAGMAIH@?$AA?6?$AA?$AA@ 0000000000007f8c     Dblk:efidump.obj
 0002:000034f0       ??_C@_1BE@CBCOEOIA@?$AAP?$AAa?$AAr?$AAt?$AAi?$AAt?$AAi?$AAo?$AAn?$AA?$AA@ 0000000000007f90     Dblk:efidump.obj
 0002:00003508       ??_C@_1O@GINMMDNN@?$AAS?$AAy?$AAs?$AAt?$AAe?$AAm?$AA?$AA@ 0000000000007fa8     Dblk:efidump.obj
 0002:00003518       ??_C@_1BM@OOPJGICC@?$AAB?$AAo?$AAo?$AAt?$AA?5?$AAS?$AAe?$AAr?$AAv?$AAi?$AAc?$AAe?$AAs?$AA?$AA@ 0000000000007fb8     Dblk:efidump.obj
 0002:00003538       ??_C@_1CC@DPAHCAMA@?$AAR?$AAu?$AAn?$AAt?$AAi?$AAm?$AAe?$AA?5?$AAS?$AAe?$AAr?$AAv?$AAi?$AAc?$AAe?$AAs?$AA?$AA@ 0000000000007fd8     Dblk:efidump.obj
 0002:0000355c       ??_C@_11LOCGONAA@?$AA?$AA@ 0000000000007ffc     Dblk:efidump.obj
 0002:0000355e       ??_C@_00CNPNBAHC@?$AA@     0000000000007ffe     Dblk:efidump.obj
 0002:00003560       ??_C@_04ECGLBLOI@?9?9?9?9?$AA@ 0000000000008000     Dblk:efidump.obj
 0002:00003568       ??_C@_03JFAFOAIM@LBA?$AA@  0000000000008008     Dblk:efidump.obj
 0002:00003570       ??_C@_07EODJIPPN@Address?$AA@ 0000000000008010     Dblk:efidump.obj
 0002:00003580       ??_C@_19BALNHBBC@?$AAL?$AAa?$AAn?$AAg?$AA?$AA@ 0000000000008020     EfiShellLib:Misc.obj
 0002:00003590       ??_C@_1BK@GGGENMOA@?$AAP?$AAl?$AAa?$AAt?$AAf?$AAo?$AAr?$AAm?$AAL?$AAa?$AAn?$AAg?$AA?$AA@ 0000000000008030     EfiShellLib:Misc.obj
 0002:000035ac       ??_C@_15GANGMFKL@?$AA?$CF?$AAs?$AA?$AA@ 000000000000804c     EfiShellLib:Misc.obj
 0002:000035c0       ??_C@_1GC@MIJCAPDC@?$AA?$CF?$AA0?$AA8?$AAx?$AA?9?$AA?$CF?$AA0?$AA4?$AAx?$AA?9?$AA?$CF?$AA0?$AA4?$AAx?$AA?9?$AA?$CF?$AA0?$AA2?$AAx?$AA?$CF?$AA0?$AA2?$AAx?$AA?9?$AA?$CF?$AA0?$AA2?$AAx?$AA?$CF?$AA0?$AA2?$AAx@ 0000000000008060     EfiShellLib:Misc.obj
 0002:00003628       ??_C@_1BA@JFDCMKFN@?$AAS?$AAu?$AAc?$AAc?$AAe?$AAs?$AAs?$AA?$AA@ 00000000000080c8     EfiShellLib:Misc.obj
 0002:00003638       ??_C@_1BG@IPPBEJLN@?$AAL?$AAo?$AAa?$AAd?$AA?5?$AAE?$AAr?$AAr?$AAo?$AAr?$AA?$AA@ 00000000000080d8     EfiShellLib:Misc.obj
 0002:00003650       ??_C@_1CE@FAJJAJHO@?$AAI?$AAn?$AAv?$AAa?$AAl?$AAi?$AAd?$AA?5?$AAP?$AAa?$AAr?$AAa?$AAm?$AAe?$AAt?$AAe?$AAr?$AA?$AA@ 00000000000080f0     EfiShellLib:Misc.obj
 0002:00003678       ??_C@_1BI@HACEKCKB@?$AAU?$AAn?$AAs?$AAu?$AAp?$AAp?$AAo?$AAr?$AAt?$AAe?$AAd?$AA?$AA@ 0000000000008118     EfiShellLib:Misc.obj
 0002:00003690       ??_C@_1CA@MKNIKBGN@?$AAB?$AAa?$AAd?$AA?5?$AAB?$AAu?$AAf?$AAf?$AAe?$AAr?$AA?5?$AAS?$AAi?$AAz?$AAe?$AA?$AA@ 0000000000008130     EfiShellLib:Misc.obj
 0002:000036b0       ??_C@_1CC@GADLJCKI@?$AAB?$AAu?$AAf?$AAf?$AAe?$AAr?$AA?5?$AAT?$AAo?$AAo?$AA?5?$AAS?$AAm?$AAa?$AAl?$AAl?$AA?$AA@ 0000000000008150     EfiShellLib:Misc.obj
 0002:000036d8       ??_C@_1BE@HFDAGNKF@?$AAN?$AAo?$AAt?$AA?5?$AAR?$AAe?$AAa?$AAd?$AAy?$AA?$AA@ 0000000000008178     EfiShellLib:Misc.obj
 0002:000036f0       ??_C@_1BK@MPLHBIOA@?$AAD?$AAe?$AAv?$AAi?$AAc?$AAe?$AA?5?$AAE?$AAr?$AAr?$AAo?$AAr?$AA?$AA@ 0000000000008190     EfiShellLib:Misc.obj
 0002:00003710       ??_C@_1CA@PAGBHICH@?$AAW?$AAr?$AAi?$AAt?$AAe?$AA?5?$AAP?$AAr?$AAo?$AAt?$AAe?$AAc?$AAt?$AAe?$AAd?$AA?$AA@ 00000000000081b0     EfiShellLib:Misc.obj
 0002:00003730       ??_C@_1CC@JDEEHPBA@?$AAO?$AAu?$AAt?$AA?5?$AAo?$AAf?$AA?5?$AAR?$AAe?$AAs?$AAo?$AAu?$AAr?$AAc?$AAe?$AAs?$AA?$AA@ 00000000000081d0     EfiShellLib:Misc.obj
 0002:00003758       ??_C@_1CC@IIFGLPAC@?$AAV?$AAo?$AAl?$AAu?$AAm?$AAe?$AA?5?$AAC?$AAo?$AAr?$AAr?$AAu?$AAp?$AAt?$AAe?$AAd?$AA?$AA@ 00000000000081f8     EfiShellLib:Misc.obj
 0002:00003780       ??_C@_1BI@KDMJOJPB@?$AAV?$AAo?$AAl?$AAu?$AAm?$AAe?$AA?5?$AAF?$AAu?$AAl?$AAl?$AA?$AA@ 0000000000008220     EfiShellLib:Misc.obj
 0002:00003798       ??_C@_1BC@CAEJNJKB@?$AAN?$AAo?$AA?5?$AAM?$AAe?$AAd?$AAi?$AAa?$AA?$AA@ 0000000000008238     EfiShellLib:Misc.obj
 0002:000037b0       ??_C@_1BM@CGJAEDJP@?$AAM?$AAe?$AAd?$AAi?$AAa?$AA?5?$AAC?$AAh?$AAa?$AAn?$AAg?$AAe?$AAd?$AA?$AA@ 0000000000008250     EfiShellLib:Misc.obj
 0002:000037d0       ??_C@_1BE@JGBFLIBK@?$AAN?$AAo?$AAt?$AA?5?$AAF?$AAo?$AAu?$AAn?$AAd?$AA?$AA@ 0000000000008270     EfiShellLib:Misc.obj
 0002:000037e8       ??_C@_1BM@HDPINFLL@?$AAA?$AAc?$AAc?$AAe?$AAs?$AAs?$AA?5?$AAD?$AAe?$AAn?$AAi?$AAe?$AAd?$AA?$AA@ 0000000000008288     EfiShellLib:Misc.obj
 0002:00003808       ??_C@_1BI@JIAAMNOB@?$AAN?$AAo?$AA?5?$AAR?$AAe?$AAs?$AAp?$AAo?$AAn?$AAs?$AAe?$AA?$AA@ 00000000000082a8     EfiShellLib:Misc.obj
 0002:00003820       ??_C@_1BG@OHLJONME@?$AAN?$AAo?$AA?5?$AAM?$AAa?$AAp?$AAp?$AAi?$AAn?$AAg?$AA?$AA@ 00000000000082c0     EfiShellLib:Misc.obj
 0002:00003838       ??_C@_1BC@GINMNENH@?$AAT?$AAi?$AAm?$AAe?$AA?5?$AAO?$AAu?$AAt?$AA?$AA@ 00000000000082d8     EfiShellLib:Misc.obj
 0002:00003850       ??_C@_1BI@MNIOFEEM@?$AAN?$AAo?$AAt?$AA?5?$AAS?$AAt?$AAa?$AAr?$AAt?$AAe?$AAd?$AA?$AA@ 00000000000082f0     EfiShellLib:Misc.obj
 0002:00003868       ??_C@_1CA@CNMNDJCM@?$AAA?$AAl?$AAr?$AAe?$AAa?$AAd?$AAy?$AA?5?$AAS?$AAt?$AAa?$AAr?$AAt?$AAe?$AAd?$AA?$AA@ 0000000000008308     EfiShellLib:Misc.obj
 0002:00003888       ??_C@_1BA@JCPMFPEO@?$AAA?$AAb?$AAo?$AAr?$AAt?$AAe?$AAd?$AA?$AA@ 0000000000008328     EfiShellLib:Misc.obj
 0002:00003898       ??_C@_1BG@GJCEBLMD@?$AAI?$AAC?$AAM?$AAP?$AA?5?$AAE?$AAr?$AAr?$AAo?$AAr?$AA?$AA@ 0000000000008338     EfiShellLib:Misc.obj
 0002:000038b0       ??_C@_1BG@MPDDBEKI@?$AAT?$AAF?$AAT?$AAP?$AA?5?$AAE?$AAr?$AAr?$AAo?$AAr?$AA?$AA@ 0000000000008350     EfiShellLib:Misc.obj
 0002:000038c8       ??_C@_1BO@MGICIKC@?$AAP?$AAr?$AAo?$AAt?$AAo?$AAc?$AAo?$AAl?$AA?5?$AAE?$AAr?$AAr?$AAo?$AAr?$AA?$AA@ 0000000000008368     EfiShellLib:Misc.obj
 0002:000038e8       ??_C@_1CM@OIKNIHHI@?$AAW?$AAa?$AAr?$AAn?$AAi?$AAn?$AAg?$AA?5?$AAU?$AAn?$AAk?$AAn?$AAo?$AAw?$AAn?$AA?5?$AAG?$AAl?$AAy?$AAp?$AAh?$AA?$AA@ 0000000000008388     EfiShellLib:Misc.obj
 0002:00003918       ??_C@_1CO@MFHEGPPN@?$AAW?$AAa?$AAr?$AAn?$AAi?$AAn?$AAg?$AA?5?$AAD?$AAe?$AAl?$AAe?$AAt?$AAe?$AA?5?$AAF?$AAa?$AAi?$AAl?$AAu?$AAr?$AAe?$AA?$AA@ 00000000000083b8     EfiShellLib:Misc.obj
 0002:00003948       ??_C@_1CM@FKHEOEHO@?$AAW?$AAa?$AAr?$AAn?$AAi?$AAn?$AAg?$AA?5?$AAW?$AAr?$AAi?$AAt?$AAe?$AA?5?$AAF?$AAa?$AAi?$AAl?$AAu?$AAr?$AAe?$AA?$AA@ 00000000000083e8     EfiShellLib:Misc.obj
 0002:00003978       ??_C@_1DC@LAAGMHGB@?$AAW?$AAa?$AAr?$AAn?$AAi?$AAn?$AAg?$AA?5?$AAB?$AAu?$AAf?$AAf?$AAe?$AAr?$AA?5?$AAT?$AAo?$AAo?$AA?5?$AAS?$AAm?$AAa?$AAl?$AAl?$AA?$AA@ 0000000000008418     EfiShellLib:Misc.obj
 0002:000039b0       ??_C@_1CK@CPNEFGBF@?$AAI?$AAn?$AAc?$AAo?$AAm?$AAp?$AAa?$AAt?$AAi?$AAb?$AAl?$AAe?$AA?5?$AAV?$AAe?$AAr?$AAs?$AAi?$AAo?$AAn?$AA?$AA@ 0000000000008450     EfiShellLib:Misc.obj
 0002:000039e0       ??_C@_1CG@CONBDECJ@?$AAS?$AAe?$AAc?$AAu?$AAr?$AAi?$AAt?$AAy?$AA?5?$AAV?$AAi?$AAo?$AAl?$AAa?$AAt?$AAi?$AAo?$AAn?$AA?$AA@ 0000000000008480     EfiShellLib:Misc.obj
 0002:00003a08       ??_C@_1BE@LNMOCCLF@?$AAC?$AAR?$AAC?$AA?5?$AAE?$AAr?$AAr?$AAo?$AAr?$AA?$AA@ 00000000000084a8     EfiShellLib:Misc.obj
 0002:00003a20       ??_C@_1CE@OCFFKMII@?$AAN?$AAo?$AAt?$AA?5?$AAA?$AAv?$AAa?$AAi?$AAl?$AAa?$AAb?$AAl?$AAe?$AA?5?$AAY?$AAe?$AAt?$AA?$AA@ 00000000000084c0     EfiShellLib:Misc.obj
 0002:00003a48       ??_C@_1BK@BJJGPOPI@?$AAU?$AAn?$AAl?$AAo?$AAa?$AAd?$AA?5?$AAI?$AAm?$AAa?$AAg?$AAe?$AA?$AA@ 00000000000084e8     EfiShellLib:Misc.obj
 0002:00003a68       ??_C@_1DM@HHKGEKOD@?$AAW?$AAa?$AAr?$AAn?$AAi?$AAn?$AAg?$AA?5?$AAR?$AAe?$AAt?$AAu?$AAr?$AAn?$AA?5?$AAF?$AAr?$AAo?$AAm?$AA?5?$AAL?$AAo?$AAn?$AAg?$AA?5?$AAJ?$AAu?$AAm?$AAp?$AA?$AA@ 0000000000008508     EfiShellLib:Misc.obj
 0002:00003aa4       ??_C@_15BHOFONJE@?$AA?$CF?$AAX?$AA?$AA@ 0000000000008544     EfiShellLib:Misc.obj
 0002:00003ab0       ??_C@_1DI@JHANLOAN@?$AA?$CF?$AA0?$AA2?$AAd?$AA?1?$AA?$CF?$AA0?$AA2?$AAd?$AA?1?$AA?$CF?$AA0?$AA2?$AAd?$AA?5?$AA?5?$AA?$CF?$AA0?$AA2?$AAd?$AA?3?$AA?$CF?$AA0?$AA2?$AAd?$AA?$CF?$AAc?$AA?$AA@ 0000000000008550     EfiShellLib:Misc.obj
 0002:00003ae8       ??_C@_1CI@HDPFGKPN@?$AA?$CF?$AA?$CK?$AAa?$AA?$CF?$AAX?$AA?3?$AA?5?$AA?$CF?$AA?9?$AA?4?$AA4?$AA8?$AAa?$AA?5?$AA?$CK?$AA?$CF?$AAa?$AA?$CK?$AA?6?$AA?$AA@ 0000000000008588     EfiShellLib:Misc.obj
 0002:00003b10       ??_C@_03LKLGDMJI@eng?$AA@  00000000000085b0     EfiShellLib:Misc.obj
 0002:00003b14       ??_C@_05JJLPJMLG@en?9US?$AA@ 00000000000085b4     EfiShellLib:Misc.obj
 0002:00003b1c       ca                         00000000000085bc     EfiShellLib:Misc.obj
 0002:00003b30       ??_C@_1BG@MDAPCJEC@?$AAP?$AAc?$AAi?$AA?$CI?$AA?$CF?$AAx?$AA?$HM?$AA?$CF?$AAx?$AA?$CJ?$AA?$AA@ 00000000000085d0     EfiShellLib:DPath.obj
 0002:00003b48       ??_C@_1CG@GFOOBBGG@?$AAP?$AAc?$AAc?$AAa?$AAr?$AAd?$AA?$CI?$AAF?$AAu?$AAn?$AAc?$AAt?$AAi?$AAo?$AAn?$AA?$CF?$AAx?$AA?$CJ?$AA?$AA@ 00000000000085e8     EfiShellLib:DPath.obj
 0002:00003b70       ??_C@_1CG@COPCJGED@?$AAM?$AAe?$AAm?$AAM?$AAa?$AAp?$AA?$CI?$AA?$CF?$AAd?$AA?3?$AA?$CF?$AAl?$AAx?$AA?9?$AA?$CF?$AAl?$AAx?$AA?$CJ?$AA?$AA@ 0000000000008610     EfiShellLib:DPath.obj
 0002:00003b98       ??_C@_1BC@EGKCLGKB@?$AAC?$AAt?$AAr?$AAl?$AA?$CI?$AA?$CF?$AAd?$AA?$CJ?$AA?$AA@ 0000000000008638     EfiShellLib:DPath.obj
 0002:00003bac       ??_C@_15FLNOEOHI@?$AAH?$AAw?$AA?$AA@ 000000000000864c     EfiShellLib:DPath.obj
 0002:00003bb8       ??_C@_17DACEHHP@?$AAM?$AAs?$AAg?$AA?$AA@ 0000000000008658     EfiShellLib:DPath.obj
 0002:00003bc0       ??_C@_1BI@PHHNEBMB@?$AAV?$AAe?$AAn?$AAP?$AAc?$AAA?$AAn?$AAs?$AAi?$AA?$CI?$AA?$CJ?$AA?$AA@ 0000000000008660     EfiShellLib:DPath.obj
 0002:00003bd8       ??_C@_1BG@IAIKNGNN@?$AAV?$AAe?$AAn?$AAV?$AAt?$AA1?$AA0?$AA0?$AA?$CI?$AA?$CJ?$AA?$AA@ 0000000000008678     EfiShellLib:DPath.obj
 0002:00003bf0       ??_C@_1BO@COEKAAEN@?$AAV?$AAe?$AAn?$AAV?$AAt?$AA1?$AA0?$AA0?$AAP?$AAl?$AAu?$AAs?$AA?$CI?$AA?$CJ?$AA?$AA@ 0000000000008690     EfiShellLib:DPath.obj
 0002:00003c10       ??_C@_1BE@EAENEGNC@?$AAV?$AAe?$AAn?$AAU?$AAf?$AAt?$AA8?$AA?$CI?$AA?$CJ?$AA?$AA@ 00000000000086b0     EfiShellLib:DPath.obj
 0002:00003c28       ??_C@_19KLMLHLJG@?$AAN?$AAo?$AAn?$AAe?$AA?$AA@ 00000000000086c8     EfiShellLib:DPath.obj
 0002:00003c38       ??_C@_1CC@FKEHNDLA@?$AAU?$AAa?$AAr?$AAt?$AAF?$AAl?$AAo?$AAw?$AAC?$AAt?$AAr?$AAl?$AA?$CI?$AA?$CF?$AAs?$AA?$CJ?$AA?$AA@ 00000000000086d8     EfiShellLib:DPath.obj
 0002:00003c60       ??_C@_1BC@MAICEHGI@?$AAH?$AAa?$AAr?$AAd?$AAw?$AAa?$AAr?$AAe?$AA?$AA@ 0000000000008700     EfiShellLib:DPath.obj
 0002:00003c78       ??_C@_1BA@NAMMFHHL@?$AAX?$AAo?$AAn?$AAX?$AAo?$AAf?$AAf?$AA?$AA@ 0000000000008718     EfiShellLib:DPath.obj
 0002:00003c88       ??_C@_1CA@GPHPHMMO@?$AAS?$AAA?$AAS?$AA?$CI?$AA?$CF?$AAl?$AAx?$AA?0?$AA?$CF?$AAl?$AAx?$AA?0?$AA?$CF?$AAx?$AA?0?$AA?$AA@ 0000000000008728     EfiShellLib:DPath.obj
 0002:00003ca8       ??_C@_1CE@FDCOMKL@?$AAN?$AAo?$AAT?$AAo?$AAp?$AAo?$AAl?$AAo?$AAg?$AAy?$AA?0?$AA0?$AA?0?$AA0?$AA?0?$AA0?$AA?0?$AA?$AA@ 0000000000008748     EfiShellLib:DPath.obj
 0002:00003cd0       ??_C@_1BC@EEIMPKHO@?$AAE?$AAx?$AAp?$AAa?$AAn?$AAd?$AAe?$AAd?$AA?$AA@ 0000000000008770     EfiShellLib:DPath.obj
 0002:00003ce8       ??_C@_1O@MDCABJAO@?$AAD?$AAi?$AAr?$AAe?$AAc?$AAt?$AA?$AA@ 0000000000008788     EfiShellLib:DPath.obj
 0002:00003cf8       ??_C@_1BC@KMFBFJEN@?$AAE?$AAx?$AAt?$AAe?$AAr?$AAn?$AAa?$AAl?$AA?$AA@ 0000000000008798     EfiShellLib:DPath.obj
 0002:00003d10       ??_C@_1BC@FBOHHDN@?$AAI?$AAn?$AAt?$AAe?$AAr?$AAn?$AAa?$AAl?$AA?$AA@ 00000000000087b0     EfiShellLib:DPath.obj
 0002:00003d28       ??_C@_19BPNGBNAI@?$AAS?$AAA?$AAT?$AAA?$AA?$AA@ 00000000000087c8     EfiShellLib:DPath.obj
 0002:00003d38       ??_C@_17FMMIKNDG@?$AAS?$AAA?$AAS?$AA?$AA@ 00000000000087d8     EfiShellLib:DPath.obj
 0002:00003d40       ??_C@_1BE@MLBJKAMN@?$AA?$CF?$AAs?$AA?0?$AA?$CF?$AAs?$AA?0?$AA?$CF?$AAs?$AA?0?$AA?$AA@ 00000000000087e0     EfiShellLib:DPath.obj
 0002:00003d54       ??_C@_15KAKDEJHH@?$AA0?$AA?0?$AA?$AA@ 00000000000087f4     EfiShellLib:DPath.obj
 0002:00003d60       ??_C@_17CGNONDIO@?$AA?$CF?$AAx?$AA?0?$AA?$AA@ 0000000000008800     EfiShellLib:DPath.obj
 0002:00003d68       ??_C@_1BC@MFEFEMOI@?$AA0?$AA?0?$AA0?$AA?0?$AA0?$AA?0?$AA0?$AA?0?$AA?$AA@ 0000000000008808     EfiShellLib:DPath.obj
 0002:00003d80       ??_C@_17BBAACDLM@?$AA?$CF?$AAx?$AA?$CJ?$AA?$AA@ 0000000000008820     EfiShellLib:DPath.obj
 0002:00003d88       ??_C@_1BI@IHPCIEPJ@?$AAD?$AAe?$AAb?$AAu?$AAg?$AAP?$AAo?$AAr?$AAt?$AA?$CI?$AA?$CJ?$AA?$AA@ 0000000000008828     EfiShellLib:DPath.obj
 0002:00003da0       ??_C@_1M@OFOICAAP@?$AAM?$AAe?$AAd?$AAi?$AAa?$AA?$AA@ 0000000000008840     EfiShellLib:DPath.obj
 0002:00003dac       ??_C@_13HGPDMIBE@?$AA?$DP?$AA?$AA@ 000000000000884c     EfiShellLib:DPath.obj
 0002:00003db0       ??_C@_1BC@EAAHJKNI@?$AAV?$AAe?$AAn?$AA?$CF?$AAs?$AA?$CI?$AA?$CF?$AAg?$AA?$AA@ 0000000000008850     EfiShellLib:DPath.obj
 0002:00003dc4       ??_C@_13DEFPDAGF@?$AA?0?$AA?$AA@ 0000000000008864     EfiShellLib:DPath.obj
 0002:00003dc8       ??_C@_19NHPFCCLF@?$AA?$CF?$AA0?$AA2?$AAx?$AA?$AA@ 0000000000008868     EfiShellLib:DPath.obj
 0002:00003dd4       ??_C@_13DIBMAFH@?$AA?$CJ?$AA?$AA@ 0000000000008874     EfiShellLib:DPath.obj
 0002:00003dd8       ??_C@_1CC@FJOIFOI@?$AAA?$AAc?$AAp?$AAi?$AA?$CI?$AAP?$AAN?$AAP?$AA?$CF?$AA0?$AA4?$AAx?$AA?0?$AA?$CF?$AAx?$AA?$CJ?$AA?$AA@ 0000000000008878     EfiShellLib:DPath.obj
 0002:00003e00       ??_C@_1BM@EKDANHGG@?$AAA?$AAc?$AAp?$AAi?$AA?$CI?$AA?$CF?$AA0?$AA8?$AAx?$AA?0?$AA?$CF?$AAx?$AA?$CJ?$AA?$AA@ 00000000000088a0     EfiShellLib:DPath.obj
 0002:00003e20       ??_C@_1BA@IJNMBDIJ@?$AAA?$AAc?$AAp?$AAi?$AAE?$AAx?$AA?$CI?$AA?$AA@ 00000000000088c0     EfiShellLib:DPath.obj
 0002:00003e30       ??_C@_1BC@MBEODLHL@?$AAP?$AAN?$AAP?$AA?$CF?$AA0?$AA4?$AAx?$AA?0?$AA?$AA@ 00000000000088d0     EfiShellLib:DPath.obj
 0002:00003e48       ??_C@_1M@DHPGMAKC@?$AA?$CF?$AA0?$AA8?$AAx?$AA?0?$AA?$AA@ 00000000000088e8     EfiShellLib:DPath.obj
 0002:00003e58       ??_C@_17CAHIANN@?$AA?$CF?$AAa?$AA?0?$AA?$AA@ 00000000000088f8     EfiShellLib:DPath.obj
 0002:00003e60       ??_C@_1M@OOAJBNEB@?$AAN?$AAU?$AAL?$AAL?$AA?0?$AA?$AA@ 0000000000008900     EfiShellLib:DPath.obj
 0002:00003e70       ??_C@_17DFNJHAOP@?$AA?$CF?$AAa?$AA?$CJ?$AA?$AA@ 0000000000008910     EfiShellLib:DPath.obj
 0002:00003e78       ??_C@_1M@NJNHONHD@?$AAN?$AAU?$AAL?$AAL?$AA?$CJ?$AA?$AA@ 0000000000008918     EfiShellLib:DPath.obj
 0002:00003e88       ??_C@_1BG@PBGINCJO@?$AAA?$AAc?$AAp?$AAi?$AAA?$AAd?$AAr?$AA?$CI?$AA?$CF?$AAx?$AA?$AA@ 0000000000008928     EfiShellLib:DPath.obj
 0002:00003ea0       ??_C@_17MNOOELHJ@?$AA?0?$AA?$CF?$AAx?$AA?$AA@ 0000000000008940     EfiShellLib:DPath.obj
 0002:00003ea8       ??_C@_1M@MJNGBMFK@?$AAS?$AAl?$AAa?$AAv?$AAe?$AA?$AA@ 0000000000008948     EfiShellLib:DPath.obj
 0002:00003eb8       ??_C@_1O@MHJLHGPK@?$AAM?$AAa?$AAs?$AAt?$AAe?$AAr?$AA?$AA@ 0000000000008958     EfiShellLib:DPath.obj
 0002:00003ec8       ??_C@_1BE@BGLPHBHD@?$AAS?$AAe?$AAc?$AAo?$AAn?$AAd?$AAa?$AAr?$AAy?$AA?$AA@ 0000000000008968     EfiShellLib:DPath.obj
 0002:00003ee0       ??_C@_1BA@NGCDBIG@?$AAP?$AAr?$AAi?$AAm?$AAa?$AAr?$AAy?$AA?$AA@ 0000000000008980     EfiShellLib:DPath.obj
 0002:00003ef0       ??_C@_1BG@MJECHGPM@?$AAA?$AAt?$AAa?$AA?$CI?$AA?$CF?$AAs?$AA?0?$AA?$CF?$AAs?$AA?$CJ?$AA?$AA@ 0000000000008990     EfiShellLib:DPath.obj
 0002:00003f08       ??_C@_1CE@KKBOILKH@?$AAS?$AAc?$AAs?$AAi?$AA?$CI?$AAP?$AAu?$AAn?$AA?$CF?$AAx?$AA?0?$AAL?$AAu?$AAn?$AA?$CF?$AAx?$AA?$CJ?$AA?$AA@ 00000000000089a8     EfiShellLib:DPath.obj
 0002:00003f30       ??_C@_1CK@MODBBGJP@?$AAF?$AAi?$AAb?$AAr?$AAe?$AA?$CI?$AAW?$AAw?$AAn?$AA?$CF?$AAl?$AAx?$AA?0?$AAL?$AAu?$AAn?$AA?$CF?$AAl?$AAx?$AA?$CJ?$AA?$AA@ 00000000000089d0     EfiShellLib:DPath.obj
 0002:00003f60       ??_C@_1BE@GCELKCLM@?$AA1?$AA3?$AA9?$AA4?$AA?$CI?$AA?$CF?$AAl?$AAx?$AA?$CJ?$AA?$AA@ 0000000000008a00     EfiShellLib:DPath.obj
 0002:00003f78       ??_C@_1BG@CMIDIAIB@?$AAU?$AAs?$AAb?$AA?$CI?$AA?$CF?$AAx?$AA?0?$AA?$CF?$AAx?$AA?$CJ?$AA?$AA@ 0000000000008a18     EfiShellLib:DPath.obj
 0002:00003f90       ??_C@_1DC@LJNIKMC@?$AAU?$AAs?$AAb?$AAW?$AAw?$AAi?$AAd?$AA?$CI?$AA?$CF?$AAx?$AA?0?$AA?$CF?$AAx?$AA?0?$AA?$CF?$AAx?$AA?0?$AA?$CC?$AAW?$AAW?$AAI?$AAD?$AA?$CC?$AA?$CJ?$AA?$AA@ 0000000000008a30     EfiShellLib:DPath.obj
 0002:00003fc8       ??_C@_1BC@CDGDIMON@?$AAU?$AAn?$AAi?$AAt?$AA?$CI?$AA?$CF?$AAx?$AA?$CJ?$AA?$AA@ 0000000000008a68     EfiShellLib:DPath.obj
 0002:00003fe0       ??_C@_1DE@OFNCNPGK@?$AAU?$AAs?$AAb?$AA?5?$AAC?$AAl?$AAa?$AAs?$AAs?$AA?$CI?$AA?$CF?$AAx?$AA?0?$AA?$CF?$AAx?$AA?0?$AA?$CF?$AAx?$AA?0?$AA?$CF?$AAx?$AA?0?$AA?$CF?$AAx?$AA?$CJ?$AA?$AA@ 0000000000008a80     EfiShellLib:DPath.obj
 0002:00004018       ??_C@_1BI@FAMJOHJC@?$AAS?$AAa?$AAt?$AAa?$AA?$CI?$AA?$CF?$AAx?$AA?0?$AA?$CF?$AAx?$AA?$CJ?$AA?$AA@ 0000000000008ab8     EfiShellLib:DPath.obj
 0002:00004030       ??_C@_1BO@MAFHOLNF@?$AAS?$AAa?$AAt?$AAa?$AA?$CI?$AA?$CF?$AAx?$AA?0?$AA?$CF?$AAx?$AA?0?$AA?$CF?$AAx?$AA?$CJ?$AA?$AA@ 0000000000008ad0     EfiShellLib:DPath.obj
 0002:00004050       ??_C@_1BA@DPFJKEBI@?$AAI?$AA2?$AAO?$AA?$CI?$AA?$CF?$AAx?$AA?$CJ?$AA?$AA@ 0000000000008af0     EfiShellLib:DPath.obj
 0002:00004060       ??_C@_19IAJGEBJJ@?$AAM?$AAa?$AAc?$AA?$CI?$AA?$AA@ 0000000000008b00     EfiShellLib:DPath.obj
 0002:00004070       ??_C@_1CK@LDLKDNE@?$AAI?$AAP?$AAv?$AA4?$AA?$CI?$AA?$CF?$AAd?$AA?4?$AA?$CF?$AAd?$AA?4?$AA?$CF?$AAd?$AA?4?$AA?$CF?$AAd?$AA?3?$AA?$CF?$AAd?$AA?$CJ?$AA?$AA@ 0000000000008b10     EfiShellLib:DPath.obj
 0002:000040a0       ??_C@_1JM@HHADDJKA@?$AAI?$AAP?$AAv?$AA6?$AA?$CI?$AA?$CF?$AA0?$AA2?$AAx?$AA?$CF?$AA0?$AA2?$AAx?$AA?3?$AA?$CF?$AA0?$AA2?$AAx?$AA?$CF?$AA0?$AA2?$AAx?$AA?3?$AA?$CF?$AA0?$AA2?$AAx?$AA?$CF?$AA0?$AA2?$AAx?$AA?3@ 0000000000008b40     EfiShellLib:DPath.obj
 0002:00004140       ??_C@_1DM@EGNCJEEH@?$AAI?$AAn?$AAf?$AAi?$AAn?$AAi?$AAb?$AAa?$AAn?$AAd?$AA?$CI?$AA?$CF?$AAx?$AA?0?$AA?$CF?$AAg?$AA?0?$AA?$CF?$AAl?$AAx?$AA?0?$AA?$CF?$AAl?$AAx?$AA?0?$AA?$CF?$AAl?$AAx?$AA?$CJ?$AA?$AA@ 0000000000008be0     EfiShellLib:DPath.obj
 0002:00004180       ??_C@_1CC@CELNAJLC@?$AAU?$AAa?$AAr?$AAt?$AA?$CI?$AAD?$AAE?$AAF?$AAA?$AAU?$AAL?$AAT?$AA?0?$AA?$CF?$AAc?$AA?0?$AA?$AA@ 0000000000008c20     EfiShellLib:DPath.obj
 0002:000041a8       ??_C@_1BK@MEBKLFKJ@?$AAU?$AAa?$AAr?$AAt?$AA?$CI?$AA?$CF?$AAl?$AAd?$AA?0?$AA?$CF?$AAc?$AA?0?$AA?$AA@ 0000000000008c48     EfiShellLib:DPath.obj
 0002:000041c4       ??_C@_15DABAAGKA@?$AAD?$AA?0?$AA?$AA@ 0000000000008c64     EfiShellLib:DPath.obj
 0002:000041d0       ??_C@_17FCMKBBGO@?$AA?$CF?$AAd?$AA?0?$AA?$AA@ 0000000000008c70     EfiShellLib:DPath.obj
 0002:000041d8       ??_C@_15HMOPGJC@?$AAD?$AA?$CJ?$AA?$AA@ 0000000000008c78     EfiShellLib:DPath.obj
 0002:000041e0       ??_C@_15FMCBGKOA@?$AA1?$AA?$CJ?$AA?$AA@ 0000000000008c80     EfiShellLib:DPath.obj
 0002:000041e8       ??_C@_19PODFHIEB@?$AA1?$AA?4?$AA5?$AA?$CJ?$AA?$AA@ 0000000000008c88     EfiShellLib:DPath.obj
 0002:000041f4       ??_C@_15NKLFBIEO@?$AA2?$AA?$CJ?$AA?$AA@ 0000000000008c94     EfiShellLib:DPath.obj
 0002:000041fc       ??_C@_15HEHGDBEE@?$AAx?$AA?$CJ?$AA?$AA@ 0000000000008c9c     EfiShellLib:DPath.obj
 0002:00004208       ??_C@_1CC@CJFHLJEJ@?$AAi?$AAS?$AAC?$AAS?$AAI?$AA?$CI?$AA?$CF?$AAa?$AA?0?$AA?$CF?$AAx?$AA?0?$AA?$CF?$AAl?$AAx?$AA?0?$AA?$AA@ 0000000000008ca8     EfiShellLib:DPath.obj
 0002:00004230       ??_C@_1O@HNAACJMJ@?$AAC?$AAR?$AAC?$AA3?$AA2?$AAC?$AA?$AA@ 0000000000008cd0     EfiShellLib:DPath.obj
 0002:00004240       ??_C@_17EMBJCDEN@?$AA?$CF?$AAs?$AA?0?$AA?$AA@ 0000000000008ce0     EfiShellLib:DPath.obj
 0002:00004248       ??_C@_1BC@PDNIOEEC@?$AAC?$AAH?$AAA?$AAP?$AA_?$AAU?$AAN?$AAI?$AA?$AA@ 0000000000008ce8     EfiShellLib:DPath.obj
 0002:00004260       ??_C@_1BA@FMEKDPAI@?$AAC?$AAH?$AAA?$AAP?$AA_?$AAB?$AAI?$AA?$AA@ 0000000000008d00     EfiShellLib:DPath.obj
 0002:00004270       ??_C@_17JHAKKMK@?$AAT?$AAC?$AAP?$AA?$AA@ 0000000000008d10     EfiShellLib:DPath.obj
 0002:00004278       ??_C@_1BC@EFEBCBGB@?$AAr?$AAe?$AAs?$AAe?$AAr?$AAv?$AAe?$AAd?$AA?$AA@ 0000000000008d18     EfiShellLib:DPath.obj
 0002:00004290       ??_C@_17HLMHNDHP@?$AA?$CF?$AAs?$AA?$CJ?$AA?$AA@ 0000000000008d30     EfiShellLib:DPath.obj
 0002:00004298       ??_C@_1CG@MHDAEBAF@?$AAH?$AAD?$AA?$CI?$AAP?$AAa?$AAr?$AAt?$AA?$CF?$AAd?$AA?0?$AAS?$AAi?$AAg?$AA?$CF?$AA0?$AA8?$AAx?$AA?$CJ?$AA?$AA@ 0000000000008d38     EfiShellLib:DPath.obj
 0002:000042c0       ??_C@_1CC@NAGEKGEL@?$AAH?$AAD?$AA?$CI?$AAP?$AAa?$AAr?$AAt?$AA?$CF?$AAd?$AA?0?$AAS?$AAi?$AAg?$AA?$CF?$AAg?$AA?$CJ?$AA?$AA@ 0000000000008d60     EfiShellLib:DPath.obj
 0002:000042f0       ??_C@_1EK@POFNMKP@?$AAH?$AAD?$AA?$CI?$AAP?$AAa?$AAr?$AAt?$AA?$CF?$AAd?$AA?0?$AAM?$AAB?$AAR?$AAT?$AAy?$AAp?$AAe?$AA?$DN?$AA?$CF?$AA0?$AA2?$AAx?$AA?0?$AAS?$AAi?$AAg?$AAT?$AAy?$AAp?$AAe?$AA?$DN?$AA?$CF@ 0000000000008d90     EfiShellLib:DPath.obj
 0002:00004340       ??_C@_1BO@DEBMLHDP@?$AAC?$AAD?$AAR?$AAO?$AAM?$AA?$CI?$AAE?$AAn?$AAt?$AAr?$AAy?$AA?$CF?$AAx?$AA?$CJ?$AA?$AA@ 0000000000008de0     EfiShellLib:DPath.obj
 0002:00004360       ??_C@_1BE@CJGJAKDA@?$AAM?$AAe?$AAd?$AAi?$AAa?$AA?$CI?$AA?$CF?$AAg?$AA?$CJ?$AA?$AA@ 0000000000008e00     EfiShellLib:DPath.obj
 0002:00004374       ??_C@_15LPKNAFGD@?$AA?$CF?$AAg?$AA?$AA@ 0000000000008e14     EfiShellLib:DPath.obj
 0002:00004380       ??_C@_1CA@CBMMHFH@?$AAO?$AAf?$AAf?$AAs?$AAe?$AAt?$AA?$CI?$AA?$CF?$AAl?$AAx?$AA?0?$AA?$CF?$AAl?$AAx?$AA?$CJ?$AA?$AA@ 0000000000008e20     EfiShellLib:DPath.obj
 0002:000043a0       ??_C@_1O@CLMODHEM@?$AAF?$AAl?$AAo?$AAp?$AAp?$AAy?$AA?$AA@ 0000000000008e40     EfiShellLib:DPath.obj
 0002:000043b0       ??_C@_1BE@FKOIKKIA@?$AAH?$AAa?$AAr?$AAd?$AAd?$AAr?$AAi?$AAv?$AAe?$AA?$AA@ 0000000000008e50     EfiShellLib:DPath.obj
 0002:000043c8       ??_C@_1M@NEPFDHKI@?$AAC?$AAD?$AAR?$AAO?$AAM?$AA?$AA@ 0000000000008e68     EfiShellLib:DPath.obj
 0002:000043d8       ??_C@_1O@IJBLAFEH@?$AAP?$AAC?$AAM?$AAC?$AAI?$AAA?$AA?$AA@ 0000000000008e78     EfiShellLib:DPath.obj
 0002:000043e8       ??_C@_17JLICJNND@?$AAU?$AAs?$AAb?$AA?$AA@ 0000000000008e88     EfiShellLib:DPath.obj
 0002:000043f0       ??_C@_17BKKOFJGL@?$AAN?$AAe?$AAt?$AA?$AA@ 0000000000008e90     EfiShellLib:DPath.obj
 0002:000043f8       ??_C@_17EAJGCOKH@?$AAB?$AAE?$AAV?$AA?$AA@ 0000000000008e98     EfiShellLib:DPath.obj
 0002:00004400       ??_C@_1BG@MFLOOMBA@?$AAB?$AAB?$AAS?$AA?9?$AA?$CF?$AAs?$AA?$CI?$AA?$CF?$AAa?$AA?$CJ?$AA?$AA@ 0000000000008ea0     EfiShellLib:DPath.obj
 0002:00004418       ??_C@_1O@HJJPOOCL@?$AAF?$AAv?$AA?$CI?$AA?$CF?$AAg?$AA?$CJ?$AA?$AA@ 0000000000008eb8     EfiShellLib:DPath.obj
 0002:00004428       ??_C@_13CGOKJPIL@?$AA?1?$AA?$AA@ 0000000000008ec8     EfiShellLib:DPath.obj
 0002:0000442c       ??_C@_06OJHGLDPL@?$CInull?$CJ?$AA@ 0000000000008ecc     EfiShellLib:IO.obj
 0002:00004438       ??_C@_1O@CEDCILHN@?$AA?$CI?$AAn?$AAu?$AAl?$AAl?$AA?$CJ?$AA?$AA@ 0000000000008ed8     EfiShellLib:IO.obj
 0002:00004450       ??_C@_1EM@PFLICCFE@?$AAP?$AAr?$AAe?$AAs?$AAs?$AA?5?$AAE?$AAN?$AAT?$AAE?$AAR?$AA?5?$AAt?$AAo?$AA?5?$AAc?$AAo?$AAn?$AAt?$AAi?$AAn?$AAu?$AAe?$AA?0?$AA?5?$AA?8?$AAq?$AA?8?$AA?5?$AAt?$AAo?$AA?5@ 0000000000008ef0     EfiShellLib:IO.obj
 0002:0000449c       ??_C@_15JNBOKNOG@?$AA?$AN?$AA?6?$AA?$AA@ 0000000000008f3c     EfiShellLib:IO.obj
 0002:000044c8       HiiInitialized             0000000000008f68     EfiShellLib:Init.obj
 0002:000044d0       HiiLibHandle               0000000000008f70     EfiShellLib:Init.obj
 0002:000044d8       NumStrings                 0000000000008f78     EfiShellLib:Init.obj
 0002:000044e0       ShellLibInitialized        0000000000008f80     EfiShellLib:Data.obj
 0002:000044e8       gLibHiiDatabase            0000000000008f88     EfiShellLib:HiiSupport.obj
 0002:000044f0       gLibHiiString              0000000000008f90     EfiShellLib:HiiSupport.obj
 0002:000044f8       mHiiProtocolsInitialized   0000000000008f98     EfiShellLib:HiiSupport.obj
 0002:00004500       RT                         0000000000008fa0     <common>
 0002:00004520       mPrintMode                 0000000000008fc0     <common>
 0002:00004558       ST                         0000000000008ff8     <common>
 0002:00004560       SE2                        0000000000009000     <common>
 0002:00004568       BS                         0000000000009008     <common>
 0002:00004570       SI                         0000000000009010     <common>
 0002:00004578       SE                         0000000000009018     <common>
 0002:00004580       HiiDblkHandle              0000000000009020     <common>

 entry point at        0001:00000000

 Static symbols

 0002:00003578       FatNumber                  0000000000008018     Dblk:efidump.obj
 0002:00003b20       Hex                        00000000000085c0     EfiShellLib:Misc.obj
 0002:000044c0       mShellEnv                  0000000000008f60     EfiShellLib:Misc.obj
 0003:00000000       $pdata$DumpBlockDev        0000000000009040     Dblk:dblk.obj
 0003:0000000c       $pdata$DblkStructsPrint    000000000000904c     Dblk:efidump.obj
 0003:00000018       $pdata$DblkTableHeaderPrint 0000000000009058     Dblk:efidump.obj
 0003:00000024       $pdata$DblkDumpGenericHeader 0000000000009064     Dblk:efidump.obj
 0003:00000030       $pdata$DblkDumpPartition   0000000000009070     Dblk:efidump.obj
 0003:0000003c       $pdata$DblkDumpSystemTable 000000000000907c     Dblk:efidump.obj
 0003:00000048       $pdata$DblkValidBPB        0000000000009088     Dblk:efidump.obj
 0003:00000054       $pdata$DblkDumpBpb         0000000000009094     Dblk:efidump.obj
 0003:00000060       $pdata$LibCheckVarGetFlag  00000000000090a0     EfiShellLib:VarCheck.obj
 0003:0000006c       $pdata$LibCheckVariables   00000000000090ac     EfiShellLib:VarCheck.obj
 0003:00000078       $pdata$LibGetVariableAndSize 00000000000090b8     EfiShellLib:Misc.obj
 0003:00000084       $pdata$GrowBuffer          00000000000090c4     EfiShellLib:Misc.obj
 0003:00000090       $pdata$GuidToString        00000000000090d0     EfiShellLib:Misc.obj
 0003:0000009c       $pdata$LibGetSystemConfigurationTable 00000000000090dc     EfiShellLib:Misc.obj
 0003:000000a8       $pdata$ValidMBR            00000000000090e8     EfiShellLib:Misc.obj
 0003:000000b4       $pdata$ValueToString       00000000000090f4     EfiShellLib:Misc.obj
 0003:000000c0       $pdata$DumpHex             0000000000009100     EfiShellLib:Misc.obj
 0003:000000cc       $pdata$GetBestLanguage     000000000000910c     EfiShellLib:Misc.obj
 0003:000000d8       $pdata$LibSelectBestLanguage 0000000000009118     EfiShellLib:Misc.obj
 0003:000000e4       $pdata$InitializeUnicodeCollationSupportWorker 0000000000009124     EfiShellLib:Init.obj
 0003:000000f0       $pdata$LibInitializeStrings 0000000000009130     EfiShellLib:Init.obj
 0003:000000fc       $pdata$LibInitializeShellApplication 000000000000913c     EfiShellLib:Init.obj
 0003:00000108       $pdata$UnpackDevicePath    0000000000009148     EfiShellLib:DPath.obj
 0003:00000114       $pdata$_DevPathMemMap      0000000000009154     EfiShellLib:DPath.obj
 0003:00000120       $pdata$_DevPathVendor      0000000000009160     EfiShellLib:DPath.obj
 0003:0000012c       $pdata$_DevPathExtendedAcpi 000000000000916c     EfiShellLib:DPath.obj
 0003:00000138       $pdata$_DevPathAdrAcpi     0000000000009178     EfiShellLib:DPath.obj
 0003:00000144       $pdata$_DevPathUsbWWID     0000000000009184     EfiShellLib:DPath.obj
 0003:00000150       $pdata$_DevPathUsbClass    0000000000009190     EfiShellLib:DPath.obj
 0003:0000015c       $pdata$_DevPathSata        000000000000919c     EfiShellLib:DPath.obj
 0003:00000168       $pdata$_DevPathMacAddr     00000000000091a8     EfiShellLib:DPath.obj
 0003:00000174       $pdata$_DevPathIPv4        00000000000091b4     EfiShellLib:DPath.obj
 0003:00000180       $pdata$_DevPathIPv6        00000000000091c0     EfiShellLib:DPath.obj
 0003:0000018c       $pdata$_DevPathInfiniBand  00000000000091cc     EfiShellLib:DPath.obj
 0003:00000198       $pdata$_DevPathUart        00000000000091d8     EfiShellLib:DPath.obj
 0003:000001a4       $pdata$_DevPathiSCSI       00000000000091e4     EfiShellLib:DPath.obj
 0003:000001b0       $pdata$_DevPathHardDrive   00000000000091f0     EfiShellLib:DPath.obj
 0003:000001bc       $pdata$_DevPathFilePath    00000000000091fc     EfiShellLib:DPath.obj
 0003:000001c8       $pdata$LibDevicePathToStr  0000000000009208     EfiShellLib:DPath.obj
 0003:000001d4       $pdata$LibDevicePathToInterface 0000000000009214     EfiShellLib:DPath.obj
 0003:000001e0       $pdata$MetaMatch           0000000000009220     EfiShellLib:Str.obj
 0003:000001ec       $pdata$StrToUInt           000000000000922c     EfiShellLib:Str.obj
 0003:000001f8       $pdata$AllocatePool        0000000000009238     EfiShellLib:Mem.obj
 0003:00000204       $pdata$ReallocatePool      0000000000009244     EfiShellLib:Mem.obj
 0003:00000210       $pdata$AllocateZeroPool    0000000000009250     EfiShellLib:Mem.obj
 0003:0000021c       $pdata$_SPrint             000000000000925c     EfiShellLib:IO.obj
 0003:00000228       $pdata$_PoolCatPrint       0000000000009268     EfiShellLib:IO.obj
 0003:00000234       $pdata$SPrint              0000000000009274     EfiShellLib:IO.obj
 0003:00000240       $pdata$Print               0000000000009280     EfiShellLib:IO.obj
 0003:0000024c       $pdata$PrintToken          000000000000928c     EfiShellLib:IO.obj
 0003:00000258       $pdata$CatPrint            0000000000009298     EfiShellLib:IO.obj
 0003:00000264       $pdata$_IPrint             00000000000092a4     EfiShellLib:IO.obj
 0003:00000270       $pdata$PFLUSH              00000000000092b0     EfiShellLib:IO.obj
 0003:0000027c       $pdata$PSETATTR            00000000000092bc     EfiShellLib:IO.obj
 0003:00000288       $pdata$PPUTC               00000000000092c8     EfiShellLib:IO.obj
 0003:00000294       $pdata$PITEM               00000000000092d4     EfiShellLib:IO.obj
 0003:000002a0       $pdata$_Print              00000000000092e0     EfiShellLib:IO.obj
 0003:000002ac       $pdata$SetPageBreak        00000000000092ec     EfiShellLib:IO.obj
 0003:000002b8       $pdata$IFlushWithPageBreak 00000000000092f8     EfiShellLib:IO.obj
 0003:000002c4       $pdata$_PoolPrint          0000000000009304     EfiShellLib:IO.obj
 0003:000002d0       $pdata$LocateHiiProtocols  0000000000009310     EfiShellLib:HiiSupport.obj
 0003:000002dc       $pdata$PreparePackageList  000000000000931c     EfiShellLib:HiiSupport.obj
 0003:000002e8       $pdata$LibGetString        0000000000009328     EfiShellLib:HiiSupport.obj
 0003:000002f4       $pdata$LibLocateHandle     0000000000009334     EfiShellLib:Handle.obj
 0003:00000300       $pdata$LibLocateProtocol   0000000000009340     EfiShellLib:Handle.obj
 0004:00000000       $unwind$DumpBlockDev       0000000000009360     Dblk:dblk.obj
 0004:00000018       $unwind$DblkStructsPrint   0000000000009378     Dblk:efidump.obj
 0004:00000030       $unwind$DblkTableHeaderPrint 0000000000009390     Dblk:efidump.obj
 0004:00000040       $unwind$_DevPathSata       00000000000093a0     EfiShellLib:DPath.obj
 0004:00000040       $unwind$_DevPathUsbWWID    00000000000093a0     EfiShellLib:DPath.obj
 0004:00000040       $unwind$_DevPathHardDrive  00000000000093a0     EfiShellLib:DPath.obj
 0004:00000040       $unwind$DblkDumpGenericHeader 00000000000093a0     Dblk:efidump.obj
 0004:00000040       $unwind$_DevPathMemMap     00000000000093a0     EfiShellLib:DPath.obj
 0004:00000048       $unwind$DblkDumpPartition  00000000000093a8     Dblk:efidump.obj
 0004:00000050       $unwind$DblkDumpSystemTable 00000000000093b0     Dblk:efidump.obj
 0004:00000058       $unwind$DblkValidBPB       00000000000093b8     Dblk:efidump.obj
 0004:00000060       $unwind$DblkDumpBpb        00000000000093c0     Dblk:efidump.obj
 0004:00000070       $unwind$StrToUInt          00000000000093d0     EfiShellLib:Str.obj
 0004:00000070       $unwind$PPUTC              00000000000093d0     EfiShellLib:IO.obj
 0004:00000070       $unwind$UnpackDevicePath   00000000000093d0     EfiShellLib:DPath.obj
 0004:00000070       $unwind$LibCheckVarGetFlag 00000000000093d0     EfiShellLib:VarCheck.obj
 0004:00000070       $unwind$PSETATTR           00000000000093d0     EfiShellLib:IO.obj
 0004:00000070       $unwind$_DevPathUart       00000000000093d0     EfiShellLib:DPath.obj
 0004:0000007c       $unwind$LibCheckVariables  00000000000093dc     EfiShellLib:VarCheck.obj
 0004:00000094       $unwind$LibGetVariableAndSize 00000000000093f4     EfiShellLib:Misc.obj
 0004:000000a4       $unwind$_DevPathMacAddr    0000000000009404     EfiShellLib:DPath.obj
 0004:000000a4       $unwind$_DevPathFilePath   0000000000009404     EfiShellLib:DPath.obj
 0004:000000a4       $unwind$GrowBuffer         0000000000009404     EfiShellLib:Misc.obj
 0004:000000a4       $unwind$ReallocatePool     0000000000009404     EfiShellLib:Mem.obj
 0004:000000b8       $unwind$GuidToString       0000000000009418     EfiShellLib:Misc.obj
 0004:000000d0       $unwind$LibGetSystemConfigurationTable 0000000000009430     EfiShellLib:Misc.obj
 0004:000000d0       $unwind$ValidMBR           0000000000009430     EfiShellLib:Misc.obj
 0004:000000e4       $unwind$ValueToString      0000000000009444     EfiShellLib:Misc.obj
 0004:000000ec       $unwind$DumpHex            000000000000944c     EfiShellLib:Misc.obj
 0004:00000104       $unwind$GetBestLanguage    0000000000009464     EfiShellLib:Misc.obj
 0004:00000114       $unwind$LibSelectBestLanguage 0000000000009474     EfiShellLib:Misc.obj
 0004:00000124       $unwind$InitializeUnicodeCollationSupportWorker 0000000000009484     EfiShellLib:Init.obj
 0004:00000138       $unwind$LibInitializeStrings 0000000000009498     EfiShellLib:Init.obj
 0004:00000144       $unwind$LibInitializeShellApplication 00000000000094a4     EfiShellLib:Init.obj
 0004:00000154       $unwind$_DevPathiSCSI      00000000000094b4     EfiShellLib:DPath.obj
 0004:00000154       $unwind$_DevPathVendor     00000000000094b4     EfiShellLib:DPath.obj
 0004:0000016c       $unwind$_DevPathExtendedAcpi 00000000000094cc     EfiShellLib:DPath.obj
 0004:0000016c       $unwind$PITEM              00000000000094cc     EfiShellLib:IO.obj
 0004:00000184       $unwind$_PoolPrint         00000000000094e4     EfiShellLib:IO.obj
 0004:00000184       $unwind$_DevPathAdrAcpi    00000000000094e4     EfiShellLib:DPath.obj
 0004:00000194       $unwind$_DevPathIPv4       00000000000094f4     EfiShellLib:DPath.obj
 0004:00000194       $unwind$_DevPathInfiniBand 00000000000094f4     EfiShellLib:DPath.obj
 0004:00000194       $unwind$_DevPathUsbClass   00000000000094f4     EfiShellLib:DPath.obj
 0004:0000019c       $unwind$_DevPathIPv6       00000000000094fc     EfiShellLib:DPath.obj
 0004:000001b8       $unwind$LibDevicePathToStr 0000000000009518     EfiShellLib:DPath.obj
 0004:000001cc       $unwind$LibDevicePathToInterface 000000000000952c     EfiShellLib:DPath.obj
 0004:000001d4       $unwind$MetaMatch          0000000000009534     EfiShellLib:Str.obj
 0004:000001e4       $unwind$AllocatePool       0000000000009544     EfiShellLib:Mem.obj
 0004:000001e4       $unwind$LocateHiiProtocols 0000000000009544     EfiShellLib:HiiSupport.obj
 0004:000001ec       $unwind$_SPrint            000000000000954c     EfiShellLib:IO.obj
 0004:000001ec       $unwind$AllocateZeroPool   000000000000954c     EfiShellLib:Mem.obj
 0004:000001f4       $unwind$_PoolCatPrint      0000000000009554     EfiShellLib:IO.obj
 0004:000001fc       $unwind$SPrint             000000000000955c     EfiShellLib:IO.obj
 0004:00000208       $unwind$Print              0000000000009568     EfiShellLib:IO.obj
 0004:00000210       $unwind$PrintToken         0000000000009570     EfiShellLib:IO.obj
 0004:0000021c       $unwind$CatPrint           000000000000957c     EfiShellLib:IO.obj
 0004:00000224       $unwind$_IPrint            0000000000009584     EfiShellLib:IO.obj
 0004:00000230       $unwind$PFLUSH             0000000000009590     EfiShellLib:IO.obj
 0004:0000023c       $unwind$_Print             000000000000959c     EfiShellLib:IO.obj
 0004:0000025c       $unwind$SetPageBreak       00000000000095bc     EfiShellLib:IO.obj
 0004:0000026c       $unwind$IFlushWithPageBreak 00000000000095cc     EfiShellLib:IO.obj
 0004:00000284       $unwind$PreparePackageList 00000000000095e4     EfiShellLib:HiiSupport.obj
 0004:00000298       $unwind$LibGetString       00000000000095f8     EfiShellLib:HiiSupport.obj
 0004:000002b4       $unwind$LibLocateHandle    0000000000009614     EfiShellLib:Handle.obj
 0004:000002c8       $unwind$LibLocateProtocol  0000000000009628     EfiShellLib:Handle.obj
