 DrvCfg

 Timestamp is 5bc88632 (Thu Oct 18 21:10:10 2018)

 Preferred load address is 0000000000000000

 Start         Length     Name                   Class
 0001:00000000 00004d7bH .text$mn                CODE
 0002:00000000 00002738H .data                   DATA
 0002:00002740 00000686H .rdata                  DATA
 0002:00002de0 000000a8H .bss                    DATA
 0003:00000000 000001ecH .pdata                  DATA
 0004:00000000 00000278H .xdata                  DATA

  Address         Publics by Value              Rva+Base               Lib:Object

 0000:00000000       __guard_fids_count         0000000000000000     <absolute>
 0000:00000000       __guard_fids_table         0000000000000000     <absolute>
 0000:00000000       __guard_flags              0000000000000000     <absolute>
 0001:00000000       DrvcfgMain                 0000000000000280 f   DrvCfg:drvcfg.obj
 0001:00000d18       ShellCmdDriverConfigurationProcessActionRequired 0000000000000f98 f   DrvCfg:drvcfg.obj
 0001:00000ec4       SEnvCmdDriverConfiguration 0000000000001144 f   DrvCfg:drvcfg.obj
 0001:000019bc       LibLocateHandle            0000000000001c3c f   EfiShellLib:Handle.obj
 0001:00001a60       ShellHandleFromIndex       0000000000001ce0 f   EfiShellLib:Handle.obj
 0001:00001ae0       ShellHandleToIndex         0000000000001d60 f   EfiShellLib:Handle.obj
 0001:00001b84       LibScanHandleDatabase      0000000000001e04 f   EfiShellLib:Handle.obj
 0001:00002094       LibLocateProtocol          0000000000002314 f   EfiShellLib:Handle.obj
 0001:00002138       LibCheckVarGetFlag         00000000000023b8 f   EfiShellLib:VarCheck.obj
 0001:0000217c       iCompareSetFlag            00000000000023fc f   EfiShellLib:VarCheck.obj
 0001:000021d8       LibCheckVariables          0000000000002458 f   EfiShellLib:VarCheck.obj
 0001:00002524       InitializeUnicodeCollationSupportWorker 00000000000027a4 f   EfiShellLib:Init.obj
 0001:00002620       LibInitializeStrings       00000000000028a0 f   EfiShellLib:Init.obj
 0001:00002710       LibInitializeShellApplication 0000000000002990 f   EfiShellLib:Init.obj
 0001:00002978       Xtoi                       0000000000002bf8 f   EfiShellLib:Str.obj
 0001:00002a2c       LibStubMetaiMatch          0000000000002cac f   EfiShellLib:Str.obj
 0001:00002a38       MetaMatch                  0000000000002cb8 f   EfiShellLib:Str.obj
 0001:00002c50       LibStubStriCmp             0000000000002ed0 f   EfiShellLib:Str.obj
 0001:00002cd4       LibStubStrUpr              0000000000002f54 f   EfiShellLib:Str.obj
 0001:00002cf4       LibStubStrLwr              0000000000002f74 f   EfiShellLib:Str.obj
 0001:00002d14       StrToUIntegerBase          0000000000002f94 f   EfiShellLib:Str.obj
 0001:00002e38       LibGetVariableAndSize      00000000000030b8 f   EfiShellLib:Misc.obj
 0001:00002ec4       GrowBuffer                 0000000000003144 f   EfiShellLib:Misc.obj
 0001:00002f64       GuidToString               00000000000031e4 f   EfiShellLib:Misc.obj
 0001:00003074       StatusToString             00000000000032f4 f   EfiShellLib:Misc.obj
 0001:00003414       ValueToString              0000000000003694 f   EfiShellLib:Misc.obj
 0001:000034fc       LibGetCommandLineLanguage  000000000000377c f   EfiShellLib:Misc.obj
 0001:0000355c       GetBestLanguage            00000000000037dc f   EfiShellLib:Misc.obj
 0001:000036b8       LibSelectBestLanguage      0000000000003938 f   EfiShellLib:Misc.obj
 0001:000037b8       _SPrint                    0000000000003a38 f   EfiShellLib:IO.obj
 0001:00003830       SPrint                     0000000000003ab0 f   EfiShellLib:IO.obj
 0001:000038a4       Print                      0000000000003b24 f   EfiShellLib:IO.obj
 0001:000038e4       PrintToken                 0000000000003b64 f   EfiShellLib:IO.obj
 0001:000039b4       PrintAt                    0000000000003c34 f   EfiShellLib:IO.obj
 0001:000039e4       _IPrint                    0000000000003c64 f   EfiShellLib:IO.obj
 0001:00003ac0       PFLUSH                     0000000000003d40 f   EfiShellLib:IO.obj
 0001:00003b80       PSETATTR                   0000000000003e00 f   EfiShellLib:IO.obj
 0001:00003bc4       PPUTC                      0000000000003e44 f   EfiShellLib:IO.obj
 0001:00003c40       PITEM                      0000000000003ec0 f   EfiShellLib:IO.obj
 0001:00003d70       _Print                     0000000000003ff0 f   EfiShellLib:IO.obj
 0001:00004388       SetPageBreak               0000000000004608 f   EfiShellLib:IO.obj
 0001:0000449c       IFlushWithPageBreak        000000000000471c f   EfiShellLib:IO.obj
 0001:000045e0       IInput                     0000000000004860 f   EfiShellLib:IO.obj
 0001:00004a08       CopyMem                    0000000000004c88 f   EfiShellLib:Mem.obj
 0001:00004a4c       AllocatePool               0000000000004ccc f   EfiShellLib:Mem.obj
 0001:00004a80       AllocateZeroPool           0000000000004d00 f   EfiShellLib:Mem.obj
 0001:00004aac       LocateHiiProtocols         0000000000004d2c f   EfiShellLib:HiiSupport.obj
 0001:00004af8       PreparePackageList         0000000000004d78 f   EfiShellLib:HiiSupport.obj
 0001:00004bec       LibGetString               0000000000004e6c f   EfiShellLib:HiiSupport.obj
 0002:00000000       EfiDrvcfgGuid              0000000000005000     DrvCfg:drvcfg.obj
 0002:00000010       DrvcfgCheckList            0000000000005010     DrvCfg:drvcfg.obj
 0002:000000d0       DrvCfgStrings              00000000000050d0     DrvCfg:AutoGen.obj
 0002:000025e4       PoolAllocationType         00000000000075e4     EfiShellLib:Data.obj
 0002:000025e8       ShellEnvProtocol           00000000000075e8     EfiShellLib:Data.obj
 0002:000025f8       LibStubUnicodeInterface    00000000000075f8     EfiShellLib:Data.obj
 0002:00002630       UnicodeInterface           0000000000007630     EfiShellLib:Data.obj
 0002:00002638       SESGuid                    0000000000007638     EfiShellLib:Init.obj
 0002:00002648       ShellInterfaceProtocol     0000000000007648     EfiShellLib:Misc.obj
 0002:00002658       gEfiDriverConfigurationProtocolGuid 0000000000007658     EfiProtocolLib:DriverConfiguration.obj
 0002:00002668       gEfiDriverConfiguration2ProtocolGuid 0000000000007668     EfiProtocolLib:DriverConfiguration2.obj
 0002:00002678       gEfiComponentNameProtocolGuid 0000000000007678     EfiProtocolLib:ComponentName.obj
 0002:00002688       gEfiDriverBindingProtocolGuid 0000000000007688     EfiProtocolLib:DriverBinding.obj
 0002:00002698       gEfiLoadedImageProtocolGuid 0000000000007698     EfiProtocolLib:LoadedImage.obj
 0002:000026a8       gEfiDevicePathProtocolGuid 00000000000076a8     EfiProtocolLib:DevicePath.obj
 0002:000026b8       gEfiDriverDiagnosticsProtocolGuid 00000000000076b8     EfiProtocolLib:DriverDiagnostics.obj
 0002:000026c8       gEfiDriverDiagnostics2ProtocolGuid 00000000000076c8     EfiProtocolLib:DriverDiagnostics2.obj
 0002:000026d8       gEfiComponentName2ProtocolGuid 00000000000076d8     EfiProtocolLib:ComponentName2.obj
 0002:000026e8       gEfiUnicodeCollation2ProtocolGuid 00000000000076e8     EfiProtocolLib:UnicodeCollation2.obj
 0002:000026f8       gEfiUnicodeCollationProtocolGuid 00000000000076f8     EfiProtocolLib:UnicodeCollation.obj
 0002:00002708       gEfiHiiStringProtocolGuid  0000000000007708     EfiProtocolLib:HiiString.obj
 0002:00002718       gEfiHiiDatabaseProtocolGuid 0000000000007718     EfiProtocolLib:HiiDatabase.obj
 0002:00002728       gEfiGlobalVariableGuid     0000000000007728     EfiGuidLib:GlobalVariable.obj
 0002:00002740       ??_C@_15IEPPAAAP@?$AA?9?$AAl?$AA?$AA@ 0000000000007740     DrvCfg:drvcfg.obj
 0002:00002748       ??_C@_15NMJMBAFJ@?$AA?9?$AAc?$AA?$AA@ 0000000000007748     DrvCfg:drvcfg.obj
 0002:00002750       ??_C@_15OLECOAGL@?$AA?9?$AAf?$AA?$AA@ 0000000000007750     DrvCfg:drvcfg.obj
 0002:00002758       ??_C@_15LLFLLHPE@?$AA?9?$AAv?$AA?$AA@ 0000000000007758     DrvCfg:drvcfg.obj
 0002:00002760       ??_C@_15IMIFEHMG@?$AA?9?$AAs?$AA?$AA@ 0000000000007760     DrvCfg:drvcfg.obj
 0002:00002768       ??_C@_15GECAHHDM@?$AA?9?$AAb?$AA?$AA@ 0000000000007768     DrvCfg:drvcfg.obj
 0002:00002770       ??_C@_15FNEHKAED@?$AA?9?$AA?$DP?$AA?$AA@ 0000000000007770     DrvCfg:drvcfg.obj
 0002:00002778       ??_C@_19EILFCCEC@?$AA1?$AA?4?$AA1?$AA0?$AA?$AA@ 0000000000007778     DrvCfg:drvcfg.obj
 0002:00002788       ??_C@_1O@KOCLOIBL@?$AAd?$AAr?$AAv?$AAc?$AAf?$AAg?$AA?$AA@ 0000000000007788     DrvCfg:drvcfg.obj
 0002:00002798       ??_C@_1M@GGGENIPJ@?$AA1?$AA?4?$AA1?$AA?4?$AA1?$AA?$AA@ 0000000000007798     DrvCfg:drvcfg.obj
 0002:000027a4       ??_C@_13LBAGMAIH@?$AA?6?$AA?$AA@ 00000000000077a4     DrvCfg:drvcfg.obj
 0002:000027a8       ??_C@_11LOCGONAA@?$AA?$AA@ 00000000000077a8     DrvCfg:drvcfg.obj
 0002:000027b0       ??_C@_19BALNHBBC@?$AAL?$AAa?$AAn?$AAg?$AA?$AA@ 00000000000077b0     EfiShellLib:Misc.obj
 0002:000027c0       ??_C@_1BK@GGGENMOA@?$AAP?$AAl?$AAa?$AAt?$AAf?$AAo?$AAr?$AAm?$AAL?$AAa?$AAn?$AAg?$AA?$AA@ 00000000000077c0     EfiShellLib:Misc.obj
 0002:000027dc       ??_C@_15GANGMFKL@?$AA?$CF?$AAs?$AA?$AA@ 00000000000077dc     EfiShellLib:Misc.obj
 0002:000027f0       ??_C@_1GC@MIJCAPDC@?$AA?$CF?$AA0?$AA8?$AAx?$AA?9?$AA?$CF?$AA0?$AA4?$AAx?$AA?9?$AA?$CF?$AA0?$AA4?$AAx?$AA?9?$AA?$CF?$AA0?$AA2?$AAx?$AA?$CF?$AA0?$AA2?$AAx?$AA?9?$AA?$CF?$AA0?$AA2?$AAx?$AA?$CF?$AA0?$AA2?$AAx@ 00000000000077f0     EfiShellLib:Misc.obj
 0002:00002858       ??_C@_1BA@JFDCMKFN@?$AAS?$AAu?$AAc?$AAc?$AAe?$AAs?$AAs?$AA?$AA@ 0000000000007858     EfiShellLib:Misc.obj
 0002:00002868       ??_C@_1BG@IPPBEJLN@?$AAL?$AAo?$AAa?$AAd?$AA?5?$AAE?$AAr?$AAr?$AAo?$AAr?$AA?$AA@ 0000000000007868     EfiShellLib:Misc.obj
 0002:00002880       ??_C@_1CE@FAJJAJHO@?$AAI?$AAn?$AAv?$AAa?$AAl?$AAi?$AAd?$AA?5?$AAP?$AAa?$AAr?$AAa?$AAm?$AAe?$AAt?$AAe?$AAr?$AA?$AA@ 0000000000007880     EfiShellLib:Misc.obj
 0002:000028a8       ??_C@_1BI@HACEKCKB@?$AAU?$AAn?$AAs?$AAu?$AAp?$AAp?$AAo?$AAr?$AAt?$AAe?$AAd?$AA?$AA@ 00000000000078a8     EfiShellLib:Misc.obj
 0002:000028c0       ??_C@_1CA@MKNIKBGN@?$AAB?$AAa?$AAd?$AA?5?$AAB?$AAu?$AAf?$AAf?$AAe?$AAr?$AA?5?$AAS?$AAi?$AAz?$AAe?$AA?$AA@ 00000000000078c0     EfiShellLib:Misc.obj
 0002:000028e0       ??_C@_1CC@GADLJCKI@?$AAB?$AAu?$AAf?$AAf?$AAe?$AAr?$AA?5?$AAT?$AAo?$AAo?$AA?5?$AAS?$AAm?$AAa?$AAl?$AAl?$AA?$AA@ 00000000000078e0     EfiShellLib:Misc.obj
 0002:00002908       ??_C@_1BE@HFDAGNKF@?$AAN?$AAo?$AAt?$AA?5?$AAR?$AAe?$AAa?$AAd?$AAy?$AA?$AA@ 0000000000007908     EfiShellLib:Misc.obj
 0002:00002920       ??_C@_1BK@MPLHBIOA@?$AAD?$AAe?$AAv?$AAi?$AAc?$AAe?$AA?5?$AAE?$AAr?$AAr?$AAo?$AAr?$AA?$AA@ 0000000000007920     EfiShellLib:Misc.obj
 0002:00002940       ??_C@_1CA@PAGBHICH@?$AAW?$AAr?$AAi?$AAt?$AAe?$AA?5?$AAP?$AAr?$AAo?$AAt?$AAe?$AAc?$AAt?$AAe?$AAd?$AA?$AA@ 0000000000007940     EfiShellLib:Misc.obj
 0002:00002960       ??_C@_1CC@JDEEHPBA@?$AAO?$AAu?$AAt?$AA?5?$AAo?$AAf?$AA?5?$AAR?$AAe?$AAs?$AAo?$AAu?$AAr?$AAc?$AAe?$AAs?$AA?$AA@ 0000000000007960     EfiShellLib:Misc.obj
 0002:00002988       ??_C@_1CC@IIFGLPAC@?$AAV?$AAo?$AAl?$AAu?$AAm?$AAe?$AA?5?$AAC?$AAo?$AAr?$AAr?$AAu?$AAp?$AAt?$AAe?$AAd?$AA?$AA@ 0000000000007988     EfiShellLib:Misc.obj
 0002:000029b0       ??_C@_1BI@KDMJOJPB@?$AAV?$AAo?$AAl?$AAu?$AAm?$AAe?$AA?5?$AAF?$AAu?$AAl?$AAl?$AA?$AA@ 00000000000079b0     EfiShellLib:Misc.obj
 0002:000029c8       ??_C@_1BC@CAEJNJKB@?$AAN?$AAo?$AA?5?$AAM?$AAe?$AAd?$AAi?$AAa?$AA?$AA@ 00000000000079c8     EfiShellLib:Misc.obj
 0002:000029e0       ??_C@_1BM@CGJAEDJP@?$AAM?$AAe?$AAd?$AAi?$AAa?$AA?5?$AAC?$AAh?$AAa?$AAn?$AAg?$AAe?$AAd?$AA?$AA@ 00000000000079e0     EfiShellLib:Misc.obj
 0002:00002a00       ??_C@_1BE@JGBFLIBK@?$AAN?$AAo?$AAt?$AA?5?$AAF?$AAo?$AAu?$AAn?$AAd?$AA?$AA@ 0000000000007a00     EfiShellLib:Misc.obj
 0002:00002a18       ??_C@_1BM@HDPINFLL@?$AAA?$AAc?$AAc?$AAe?$AAs?$AAs?$AA?5?$AAD?$AAe?$AAn?$AAi?$AAe?$AAd?$AA?$AA@ 0000000000007a18     EfiShellLib:Misc.obj
 0002:00002a38       ??_C@_1BI@JIAAMNOB@?$AAN?$AAo?$AA?5?$AAR?$AAe?$AAs?$AAp?$AAo?$AAn?$AAs?$AAe?$AA?$AA@ 0000000000007a38     EfiShellLib:Misc.obj
 0002:00002a50       ??_C@_1BG@OHLJONME@?$AAN?$AAo?$AA?5?$AAM?$AAa?$AAp?$AAp?$AAi?$AAn?$AAg?$AA?$AA@ 0000000000007a50     EfiShellLib:Misc.obj
 0002:00002a68       ??_C@_1BC@GINMNENH@?$AAT?$AAi?$AAm?$AAe?$AA?5?$AAO?$AAu?$AAt?$AA?$AA@ 0000000000007a68     EfiShellLib:Misc.obj
 0002:00002a80       ??_C@_1BI@MNIOFEEM@?$AAN?$AAo?$AAt?$AA?5?$AAS?$AAt?$AAa?$AAr?$AAt?$AAe?$AAd?$AA?$AA@ 0000000000007a80     EfiShellLib:Misc.obj
 0002:00002a98       ??_C@_1CA@CNMNDJCM@?$AAA?$AAl?$AAr?$AAe?$AAa?$AAd?$AAy?$AA?5?$AAS?$AAt?$AAa?$AAr?$AAt?$AAe?$AAd?$AA?$AA@ 0000000000007a98     EfiShellLib:Misc.obj
 0002:00002ab8       ??_C@_1BA@JCPMFPEO@?$AAA?$AAb?$AAo?$AAr?$AAt?$AAe?$AAd?$AA?$AA@ 0000000000007ab8     EfiShellLib:Misc.obj
 0002:00002ac8       ??_C@_1BG@GJCEBLMD@?$AAI?$AAC?$AAM?$AAP?$AA?5?$AAE?$AAr?$AAr?$AAo?$AAr?$AA?$AA@ 0000000000007ac8     EfiShellLib:Misc.obj
 0002:00002ae0       ??_C@_1BG@MPDDBEKI@?$AAT?$AAF?$AAT?$AAP?$AA?5?$AAE?$AAr?$AAr?$AAo?$AAr?$AA?$AA@ 0000000000007ae0     EfiShellLib:Misc.obj
 0002:00002af8       ??_C@_1BO@MGICIKC@?$AAP?$AAr?$AAo?$AAt?$AAo?$AAc?$AAo?$AAl?$AA?5?$AAE?$AAr?$AAr?$AAo?$AAr?$AA?$AA@ 0000000000007af8     EfiShellLib:Misc.obj
 0002:00002b18       ??_C@_1CM@OIKNIHHI@?$AAW?$AAa?$AAr?$AAn?$AAi?$AAn?$AAg?$AA?5?$AAU?$AAn?$AAk?$AAn?$AAo?$AAw?$AAn?$AA?5?$AAG?$AAl?$AAy?$AAp?$AAh?$AA?$AA@ 0000000000007b18     EfiShellLib:Misc.obj
 0002:00002b48       ??_C@_1CO@MFHEGPPN@?$AAW?$AAa?$AAr?$AAn?$AAi?$AAn?$AAg?$AA?5?$AAD?$AAe?$AAl?$AAe?$AAt?$AAe?$AA?5?$AAF?$AAa?$AAi?$AAl?$AAu?$AAr?$AAe?$AA?$AA@ 0000000000007b48     EfiShellLib:Misc.obj
 0002:00002b78       ??_C@_1CM@FKHEOEHO@?$AAW?$AAa?$AAr?$AAn?$AAi?$AAn?$AAg?$AA?5?$AAW?$AAr?$AAi?$AAt?$AAe?$AA?5?$AAF?$AAa?$AAi?$AAl?$AAu?$AAr?$AAe?$AA?$AA@ 0000000000007b78     EfiShellLib:Misc.obj
 0002:00002ba8       ??_C@_1DC@LAAGMHGB@?$AAW?$AAa?$AAr?$AAn?$AAi?$AAn?$AAg?$AA?5?$AAB?$AAu?$AAf?$AAf?$AAe?$AAr?$AA?5?$AAT?$AAo?$AAo?$AA?5?$AAS?$AAm?$AAa?$AAl?$AAl?$AA?$AA@ 0000000000007ba8     EfiShellLib:Misc.obj
 0002:00002be0       ??_C@_1CK@CPNEFGBF@?$AAI?$AAn?$AAc?$AAo?$AAm?$AAp?$AAa?$AAt?$AAi?$AAb?$AAl?$AAe?$AA?5?$AAV?$AAe?$AAr?$AAs?$AAi?$AAo?$AAn?$AA?$AA@ 0000000000007be0     EfiShellLib:Misc.obj
 0002:00002c10       ??_C@_1CG@CONBDECJ@?$AAS?$AAe?$AAc?$AAu?$AAr?$AAi?$AAt?$AAy?$AA?5?$AAV?$AAi?$AAo?$AAl?$AAa?$AAt?$AAi?$AAo?$AAn?$AA?$AA@ 0000000000007c10     EfiShellLib:Misc.obj
 0002:00002c38       ??_C@_1BE@LNMOCCLF@?$AAC?$AAR?$AAC?$AA?5?$AAE?$AAr?$AAr?$AAo?$AAr?$AA?$AA@ 0000000000007c38     EfiShellLib:Misc.obj
 0002:00002c50       ??_C@_1CE@OCFFKMII@?$AAN?$AAo?$AAt?$AA?5?$AAA?$AAv?$AAa?$AAi?$AAl?$AAa?$AAb?$AAl?$AAe?$AA?5?$AAY?$AAe?$AAt?$AA?$AA@ 0000000000007c50     EfiShellLib:Misc.obj
 0002:00002c78       ??_C@_1BK@BJJGPOPI@?$AAU?$AAn?$AAl?$AAo?$AAa?$AAd?$AA?5?$AAI?$AAm?$AAa?$AAg?$AAe?$AA?$AA@ 0000000000007c78     EfiShellLib:Misc.obj
 0002:00002c98       ??_C@_1DM@HHKGEKOD@?$AAW?$AAa?$AAr?$AAn?$AAi?$AAn?$AAg?$AA?5?$AAR?$AAe?$AAt?$AAu?$AAr?$AAn?$AA?5?$AAF?$AAr?$AAo?$AAm?$AA?5?$AAL?$AAo?$AAn?$AAg?$AA?5?$AAJ?$AAu?$AAm?$AAp?$AA?$AA@ 0000000000007c98     EfiShellLib:Misc.obj
 0002:00002cd4       ??_C@_15BHOFONJE@?$AA?$CF?$AAX?$AA?$AA@ 0000000000007cd4     EfiShellLib:Misc.obj
 0002:00002ce0       ??_C@_1DI@JHANLOAN@?$AA?$CF?$AA0?$AA2?$AAd?$AA?1?$AA?$CF?$AA0?$AA2?$AAd?$AA?1?$AA?$CF?$AA0?$AA2?$AAd?$AA?5?$AA?5?$AA?$CF?$AA0?$AA2?$AAd?$AA?3?$AA?$CF?$AA0?$AA2?$AAd?$AA?$CF?$AAc?$AA?$AA@ 0000000000007ce0     EfiShellLib:Misc.obj
 0002:00002d18       ??_C@_00CNPNBAHC@?$AA@     0000000000007d18     EfiShellLib:Misc.obj
 0002:00002d1c       ??_C@_03LKLGDMJI@eng?$AA@  0000000000007d1c     EfiShellLib:Misc.obj
 0002:00002d20       ??_C@_05JJLPJMLG@en?9US?$AA@ 0000000000007d20     EfiShellLib:Misc.obj
 0002:00002d28       ca                         0000000000007d28     EfiShellLib:Misc.obj
 0002:00002d40       ??_C@_06OJHGLDPL@?$CInull?$CJ?$AA@ 0000000000007d40     EfiShellLib:IO.obj
 0002:00002d48       ??_C@_1O@CEDCILHN@?$AA?$CI?$AAn?$AAu?$AAl?$AAl?$AA?$CJ?$AA?$AA@ 0000000000007d48     EfiShellLib:IO.obj
 0002:00002d60       ??_C@_1EM@PFLICCFE@?$AAP?$AAr?$AAe?$AAs?$AAs?$AA?5?$AAE?$AAN?$AAT?$AAE?$AAR?$AA?5?$AAt?$AAo?$AA?5?$AAc?$AAo?$AAn?$AAt?$AAi?$AAn?$AAu?$AAe?$AA?0?$AA?5?$AA?8?$AAq?$AA?8?$AA?5?$AAt?$AAo?$AA?5@ 0000000000007d60     EfiShellLib:IO.obj
 0002:00002dac       ??_C@_15JNBOKNOG@?$AA?$AN?$AA?6?$AA?$AA@ 0000000000007dac     EfiShellLib:IO.obj
 0002:00002db8       ??_C@_1O@KOGCFCFL@?$AA?$CF?$AAs?$AA?$CF?$AA?4?$AA?$CK?$AAs?$AA?$AA@ 0000000000007db8     EfiShellLib:IO.obj
 0002:00002de0       ShellLibInitialized        0000000000007de0     EfiShellLib:Data.obj
 0002:00002de1       HiiInitialized             0000000000007de1     EfiShellLib:Init.obj
 0002:00002de8       HiiLibHandle               0000000000007de8     EfiShellLib:Init.obj
 0002:00002df0       NumStrings                 0000000000007df0     EfiShellLib:Init.obj
 0002:00002e00       gLibHiiDatabase            0000000000007e00     EfiShellLib:HiiSupport.obj
 0002:00002e08       gLibHiiString              0000000000007e08     EfiShellLib:HiiSupport.obj
 0002:00002e10       mHiiProtocolsInitialized   0000000000007e10     EfiShellLib:HiiSupport.obj
 0002:00002e18       RT                         0000000000007e18     <common>
 0002:00002e20       mPrintMode                 0000000000007e20     <common>
 0002:00002e58       SE2                        0000000000007e58     <common>
 0002:00002e60       SE                         0000000000007e60     <common>
 0002:00002e68       ST                         0000000000007e68     <common>
 0002:00002e70       BS                         0000000000007e70     <common>
 0002:00002e78       SI                         0000000000007e78     <common>
 0002:00002e80       HiiHandle                  0000000000007e80     <common>

 entry point at        0001:00000000

 Static symbols

 0002:00002d30       Hex                        0000000000007d30     EfiShellLib:Misc.obj
 0002:00002df8       mShellEnv                  0000000000007df8     EfiShellLib:Misc.obj
 0003:00000000       $pdata$DrvcfgMain          0000000000007ea0     DrvCfg:drvcfg.obj
 0003:0000000c       $pdata$ShellCmdDriverConfigurationProcessActionRequired 0000000000007eac     DrvCfg:drvcfg.obj
 0003:00000018       $pdata$SEnvCmdDriverConfiguration 0000000000007eb8     DrvCfg:drvcfg.obj
 0003:00000024       $pdata$LibLocateHandle     0000000000007ec4     EfiShellLib:Handle.obj
 0003:00000030       $pdata$ShellHandleFromIndex 0000000000007ed0     EfiShellLib:Handle.obj
 0003:0000003c       $pdata$ShellHandleToIndex  0000000000007edc     EfiShellLib:Handle.obj
 0003:00000048       $pdata$LibScanHandleDatabase 0000000000007ee8     EfiShellLib:Handle.obj
 0003:00000054       $pdata$LibLocateProtocol   0000000000007ef4     EfiShellLib:Handle.obj
 0003:00000060       $pdata$LibCheckVarGetFlag  0000000000007f00     EfiShellLib:VarCheck.obj
 0003:0000006c       $pdata$LibCheckVariables   0000000000007f0c     EfiShellLib:VarCheck.obj
 0003:00000078       $pdata$InitializeUnicodeCollationSupportWorker 0000000000007f18     EfiShellLib:Init.obj
 0003:00000084       $pdata$LibInitializeStrings 0000000000007f24     EfiShellLib:Init.obj
 0003:00000090       $pdata$LibInitializeShellApplication 0000000000007f30     EfiShellLib:Init.obj
 0003:0000009c       $pdata$MetaMatch           0000000000007f3c     EfiShellLib:Str.obj
 0003:000000a8       $pdata$StrToUIntegerBase   0000000000007f48     EfiShellLib:Str.obj
 0003:000000b4       $pdata$LibGetVariableAndSize 0000000000007f54     EfiShellLib:Misc.obj
 0003:000000c0       $pdata$GrowBuffer          0000000000007f60     EfiShellLib:Misc.obj
 0003:000000cc       $pdata$GuidToString        0000000000007f6c     EfiShellLib:Misc.obj
 0003:000000d8       $pdata$ValueToString       0000000000007f78     EfiShellLib:Misc.obj
 0003:000000e4       $pdata$LibGetCommandLineLanguage 0000000000007f84     EfiShellLib:Misc.obj
 0003:000000f0       $pdata$GetBestLanguage     0000000000007f90     EfiShellLib:Misc.obj
 0003:000000fc       $pdata$LibSelectBestLanguage 0000000000007f9c     EfiShellLib:Misc.obj
 0003:00000108       $pdata$_SPrint             0000000000007fa8     EfiShellLib:IO.obj
 0003:00000114       $pdata$SPrint              0000000000007fb4     EfiShellLib:IO.obj
 0003:00000120       $pdata$Print               0000000000007fc0     EfiShellLib:IO.obj
 0003:0000012c       $pdata$PrintToken          0000000000007fcc     EfiShellLib:IO.obj
 0003:00000138       $pdata$PrintAt             0000000000007fd8     EfiShellLib:IO.obj
 0003:00000144       $pdata$_IPrint             0000000000007fe4     EfiShellLib:IO.obj
 0003:00000150       $pdata$PFLUSH              0000000000007ff0     EfiShellLib:IO.obj
 0003:0000015c       $pdata$PSETATTR            0000000000007ffc     EfiShellLib:IO.obj
 0003:00000168       $pdata$PPUTC               0000000000008008     EfiShellLib:IO.obj
 0003:00000174       $pdata$PITEM               0000000000008014     EfiShellLib:IO.obj
 0003:00000180       $pdata$_Print              0000000000008020     EfiShellLib:IO.obj
 0003:0000018c       $pdata$SetPageBreak        000000000000802c     EfiShellLib:IO.obj
 0003:00000198       $pdata$IFlushWithPageBreak 0000000000008038     EfiShellLib:IO.obj
 0003:000001a4       $pdata$IInput              0000000000008044     EfiShellLib:IO.obj
 0003:000001b0       $pdata$AllocatePool        0000000000008050     EfiShellLib:Mem.obj
 0003:000001bc       $pdata$AllocateZeroPool    000000000000805c     EfiShellLib:Mem.obj
 0003:000001c8       $pdata$LocateHiiProtocols  0000000000008068     EfiShellLib:HiiSupport.obj
 0003:000001d4       $pdata$PreparePackageList  0000000000008074     EfiShellLib:HiiSupport.obj
 0003:000001e0       $pdata$LibGetString        0000000000008080     EfiShellLib:HiiSupport.obj
 0004:00000000       $unwind$DrvcfgMain         00000000000080a0     DrvCfg:drvcfg.obj
 0004:0000001c       $unwind$ShellCmdDriverConfigurationProcessActionRequired 00000000000080bc     DrvCfg:drvcfg.obj
 0004:0000002c       $unwind$SEnvCmdDriverConfiguration 00000000000080cc     DrvCfg:drvcfg.obj
 0004:00000044       $unwind$LibLocateHandle    00000000000080e4     EfiShellLib:Handle.obj
 0004:00000058       $unwind$ShellHandleFromIndex 00000000000080f8     EfiShellLib:Handle.obj
 0004:00000058       $unwind$PFLUSH             00000000000080f8     EfiShellLib:IO.obj
 0004:00000064       $unwind$ShellHandleToIndex 0000000000008104     EfiShellLib:Handle.obj
 0004:00000078       $unwind$LibScanHandleDatabase 0000000000008118     EfiShellLib:Handle.obj
 0004:00000090       $unwind$LibLocateProtocol  0000000000008130     EfiShellLib:Handle.obj
 0004:000000a4       $unwind$PPUTC              0000000000008144     EfiShellLib:IO.obj
 0004:000000a4       $unwind$LibCheckVarGetFlag 0000000000008144     EfiShellLib:VarCheck.obj
 0004:000000a4       $unwind$PSETATTR           0000000000008144     EfiShellLib:IO.obj
 0004:000000b0       $unwind$LibCheckVariables  0000000000008150     EfiShellLib:VarCheck.obj
 0004:000000c8       $unwind$InitializeUnicodeCollationSupportWorker 0000000000008168     EfiShellLib:Init.obj
 0004:000000dc       $unwind$LibInitializeStrings 000000000000817c     EfiShellLib:Init.obj
 0004:000000e8       $unwind$LibInitializeShellApplication 0000000000008188     EfiShellLib:Init.obj
 0004:000000f8       $unwind$MetaMatch          0000000000008198     EfiShellLib:Str.obj
 0004:00000108       $unwind$StrToUIntegerBase  00000000000081a8     EfiShellLib:Str.obj
 0004:00000114       $unwind$LibGetVariableAndSize 00000000000081b4     EfiShellLib:Misc.obj
 0004:00000124       $unwind$GrowBuffer         00000000000081c4     EfiShellLib:Misc.obj
 0004:00000138       $unwind$GuidToString       00000000000081d8     EfiShellLib:Misc.obj
 0004:00000150       $unwind$ValueToString      00000000000081f0     EfiShellLib:Misc.obj
 0004:00000158       $unwind$LibGetCommandLineLanguage 00000000000081f8     EfiShellLib:Misc.obj
 0004:00000168       $unwind$GetBestLanguage    0000000000008208     EfiShellLib:Misc.obj
 0004:00000178       $unwind$LibSelectBestLanguage 0000000000008218     EfiShellLib:Misc.obj
 0004:00000188       $unwind$_SPrint            0000000000008228     EfiShellLib:IO.obj
 0004:00000188       $unwind$AllocateZeroPool   0000000000008228     EfiShellLib:Mem.obj
 0004:00000190       $unwind$SPrint             0000000000008230     EfiShellLib:IO.obj
 0004:0000019c       $unwind$Print              000000000000823c     EfiShellLib:IO.obj
 0004:000001a4       $unwind$PrintToken         0000000000008244     EfiShellLib:IO.obj
 0004:000001b0       $unwind$PrintAt            0000000000008250     EfiShellLib:IO.obj
 0004:000001b8       $unwind$_IPrint            0000000000008258     EfiShellLib:IO.obj
 0004:000001c8       $unwind$PITEM              0000000000008268     EfiShellLib:IO.obj
 0004:000001e0       $unwind$_Print             0000000000008280     EfiShellLib:IO.obj
 0004:00000200       $unwind$SetPageBreak       00000000000082a0     EfiShellLib:IO.obj
 0004:00000210       $unwind$IFlushWithPageBreak 00000000000082b0     EfiShellLib:IO.obj
 0004:00000228       $unwind$IInput             00000000000082c8     EfiShellLib:IO.obj
 0004:00000240       $unwind$AllocatePool       00000000000082e0     EfiShellLib:Mem.obj
 0004:00000240       $unwind$LocateHiiProtocols 00000000000082e0     EfiShellLib:HiiSupport.obj
 0004:00000248       $unwind$PreparePackageList 00000000000082e8     EfiShellLib:HiiSupport.obj
 0004:0000025c       $unwind$LibGetString       00000000000082fc     EfiShellLib:HiiSupport.obj
