 Mm

 Timestamp is 5bc88621 (Thu Oct 18 21:09:53 2018)

 Preferred load address is 0000000000000000

 Start         Length     Name                   Class
 0001:00000000 00003ecfH .text$mn                CODE
 0002:00000000 00002e88H .data                   DATA
 0002:00002e90 00000736H .rdata                  DATA
 0002:000035e0 000000c8H .bss                    DATA
 0003:00000000 000001bcH .pdata                  DATA
 0004:00000000 0000023cH .xdata                  DATA

  Address         Publics by Value              Rva+Base               Lib:Object

 0000:00000000       __guard_fids_count         0000000000000000     <absolute>
 0000:00000000       __guard_fids_table         0000000000000000     <absolute>
 0000:00000000       __guard_flags              0000000000000000     <absolute>
 0001:00000000       DumpIoModify               00000000000002a0 f   Mm:mm.obj
 0001:00000da4       ReadMem                    0000000000001044 f   Mm:mm.obj
 0001:00000e08       OldShellParserMM           00000000000010a8 f   Mm:mm.obj
 0001:000010ac       LibCheckVarGetFlag         000000000000134c f   EfiShellLib:VarCheck.obj
 0001:000010f0       iCompareSetFlag            0000000000001390 f   EfiShellLib:VarCheck.obj
 0001:0000114c       LibCheckVariables          00000000000013ec f   EfiShellLib:VarCheck.obj
 0001:00001498       InitializeUnicodeCollationSupportWorker 0000000000001738 f   EfiShellLib:Init.obj
 0001:00001594       LibInitializeStrings       0000000000001834 f   EfiShellLib:Init.obj
 0001:00001684       LibInitializeShellApplication 0000000000001924 f   EfiShellLib:Init.obj
 0001:000018ec       Xtoi                       0000000000001b8c f   EfiShellLib:Str.obj
 0001:000019a0       LibStubMetaiMatch          0000000000001c40 f   EfiShellLib:Str.obj
 0001:000019ac       MetaMatch                  0000000000001c4c f   EfiShellLib:Str.obj
 0001:00001bc4       LibStubStriCmp             0000000000001e64 f   EfiShellLib:Str.obj
 0001:00001c48       LibStubStrUpr              0000000000001ee8 f   EfiShellLib:Str.obj
 0001:00001c68       LibStubStrLwr              0000000000001f08 f   EfiShellLib:Str.obj
 0001:00001c88       StrToUIntegerBase          0000000000001f28 f   EfiShellLib:Str.obj
 0001:00001dac       StrToUInteger              000000000000204c f   EfiShellLib:Str.obj
 0001:00001f10       LibGetVariableAndSize      00000000000021b0 f   EfiShellLib:Misc.obj
 0001:00001f9c       GrowBuffer                 000000000000223c f   EfiShellLib:Misc.obj
 0001:0000203c       GuidToString               00000000000022dc f   EfiShellLib:Misc.obj
 0001:0000214c       StatusToString             00000000000023ec f   EfiShellLib:Misc.obj
 0001:000024ec       ValueToString              000000000000278c f   EfiShellLib:Misc.obj
 0001:000025d4       GetBestLanguage            0000000000002874 f   EfiShellLib:Misc.obj
 0001:00002730       LibSelectBestLanguage      00000000000029d0 f   EfiShellLib:Misc.obj
 0001:000027c4       _SPrint                    0000000000002a64 f   EfiShellLib:IO.obj
 0001:0000283c       SPrint                     0000000000002adc f   EfiShellLib:IO.obj
 0001:000028b0       Print                      0000000000002b50 f   EfiShellLib:IO.obj
 0001:000028f0       PrintToken                 0000000000002b90 f   EfiShellLib:IO.obj
 0001:000029c0       PrintAt                    0000000000002c60 f   EfiShellLib:IO.obj
 0001:000029f0       _IPrint                    0000000000002c90 f   EfiShellLib:IO.obj
 0001:00002acc       PFLUSH                     0000000000002d6c f   EfiShellLib:IO.obj
 0001:00002b8c       PSETATTR                   0000000000002e2c f   EfiShellLib:IO.obj
 0001:00002bd0       PPUTC                      0000000000002e70 f   EfiShellLib:IO.obj
 0001:00002c4c       PITEM                      0000000000002eec f   EfiShellLib:IO.obj
 0001:00002d7c       _Print                     000000000000301c f   EfiShellLib:IO.obj
 0001:00003394       SetPageBreak               0000000000003634 f   EfiShellLib:IO.obj
 0001:000034a8       IFlushWithPageBreak        0000000000003748 f   EfiShellLib:IO.obj
 0001:000035ec       IInput                     000000000000388c f   EfiShellLib:IO.obj
 0001:00003a14       CopyMem                    0000000000003cb4 f   EfiShellLib:Mem.obj
 0001:00003a58       AllocatePool               0000000000003cf8 f   EfiShellLib:Mem.obj
 0001:00003a8c       AllocateZeroPool           0000000000003d2c f   EfiShellLib:Mem.obj
 0001:00003ab8       LibLocateHandle            0000000000003d58 f   EfiShellLib:Handle.obj
 0001:00003b5c       LibLocateProtocol          0000000000003dfc f   EfiShellLib:Handle.obj
 0001:00003c00       LocateHiiProtocols         0000000000003ea0 f   EfiShellLib:HiiSupport.obj
 0001:00003c4c       PreparePackageList         0000000000003eec f   EfiShellLib:HiiSupport.obj
 0001:00003d40       LibGetString               0000000000003fe0 f   EfiShellLib:HiiSupport.obj
 0002:00000000       EfiIomodGuid               0000000000004180     Mm:mm.obj
 0002:00000010       IomodCheckList             0000000000004190     Mm:mm.obj
 0002:00000100       MmStrings                  0000000000004280     Mm:AutoGen.obj
 0002:00002da0       SESGuid                    0000000000006f20     EfiShellLib:Init.obj
 0002:00002db0       PoolAllocationType         0000000000006f30     EfiShellLib:Data.obj
 0002:00002db8       ShellEnvProtocol           0000000000006f38     EfiShellLib:Data.obj
 0002:00002dc8       LibStubUnicodeInterface    0000000000006f48     EfiShellLib:Data.obj
 0002:00002e00       UnicodeInterface           0000000000006f80     EfiShellLib:Data.obj
 0002:00002e08       ShellInterfaceProtocol     0000000000006f88     EfiShellLib:Misc.obj
 0002:00002e18       gEfiPciRootBridgeIoProtocolGuid 0000000000006f98     EfiProtocolLib:PciRootBridgeIo.obj
 0002:00002e28       gEfiLoadedImageProtocolGuid 0000000000006fa8     EfiProtocolLib:LoadedImage.obj
 0002:00002e38       gEfiUnicodeCollation2ProtocolGuid 0000000000006fb8     EfiProtocolLib:UnicodeCollation2.obj
 0002:00002e48       gEfiUnicodeCollationProtocolGuid 0000000000006fc8     EfiProtocolLib:UnicodeCollation.obj
 0002:00002e58       gEfiHiiStringProtocolGuid  0000000000006fd8     EfiProtocolLib:HiiString.obj
 0002:00002e68       gEfiHiiDatabaseProtocolGuid 0000000000006fe8     EfiProtocolLib:HiiDatabase.obj
 0002:00002e78       gEfiGlobalVariableGuid     0000000000006ff8     EfiGuidLib:GlobalVariable.obj
 0002:00002e90       ??_C@_1M@DAEIKLGF@?$AA?9?$AAM?$AAM?$AAI?$AAO?$AA?$AA@ 0000000000007010     Mm:mm.obj
 0002:00002ea0       ??_C@_19CCKFNDOK@?$AA?9?$AAM?$AAE?$AAM?$AA?$AA@ 0000000000007020     Mm:mm.obj
 0002:00002eb0       ??_C@_17BDIOEENO@?$AA?9?$AAI?$AAO?$AA?$AA@ 0000000000007030     Mm:mm.obj
 0002:00002eb8       ??_C@_19JMCAIDFK@?$AA?9?$AAP?$AAC?$AAI?$AA?$AA@ 0000000000007038     Mm:mm.obj
 0002:00002ec8       ??_C@_1M@JICPFDGL@?$AA?9?$AAP?$AAC?$AAI?$AAE?$AA?$AA@ 0000000000007048     Mm:mm.obj
 0002:00002ed4       ??_C@_15DOHNAJB@?$AA?9?$AAw?$AA?$AA@ 0000000000007054     Mm:mm.obj
 0002:00002edc       ??_C@_15COPGMIIE@?$AA?9?$AAn?$AA?$AA@ 000000000000705c     Mm:mm.obj
 0002:00002ee4       ??_C@_15GECAHHDM@?$AA?9?$AAb?$AA?$AA@ 0000000000007064     Mm:mm.obj
 0002:00002eec       ??_C@_15FNEHKAED@?$AA?9?$AA?$DP?$AA?$AA@ 000000000000706c     Mm:mm.obj
 0002:00002ef8       ??_C@_19EILFCCEC@?$AA1?$AA?4?$AA1?$AA0?$AA?$AA@ 0000000000007078     Mm:mm.obj
 0002:00002f04       ??_C@_15DDBLGNAG@?$AAm?$AAm?$AA?$AA@ 0000000000007084     Mm:mm.obj
 0002:00002f10       ??_C@_1M@GGGENIPJ@?$AA1?$AA?4?$AA1?$AA?4?$AA1?$AA?$AA@ 0000000000007090     Mm:mm.obj
 0002:00002f1c       ??_C@_15LEADLNJI@?$AAm?$AAv?$AA?$AA@ 000000000000709c     Mm:mm.obj
 0002:00002f24       ??_C@_13LBAGMAIH@?$AA?6?$AA?$AA@ 00000000000070a4     Mm:mm.obj
 0002:00002f28       ??_C@_17PNOJILCD@?$AA?5?$AA?$DO?$AA?5?$AA?$AA@ 00000000000070a8     Mm:mm.obj
 0002:00002f30       ??_C@_17KJFKHMHC@?$AA?$DL?$AAI?$AAO?$AA?$AA@ 00000000000070b0     Mm:mm.obj
 0002:00002f38       ??_C@_19LGJAHCPF@?$AA?$DL?$AAP?$AAC?$AAI?$AA?$AA@ 00000000000070b8     Mm:mm.obj
 0002:00002f48       ??_C@_19IBFCCEF@?$AA?$DL?$AAM?$AAE?$AAM?$AA?$AA@ 00000000000070c8     Mm:mm.obj
 0002:00002f58       ??_C@_1M@NDGNODHJ@?$AA?$DL?$AAM?$AAM?$AAI?$AAO?$AA?$AA@ 00000000000070d8     Mm:mm.obj
 0002:00002f70       MaxNum                     00000000000070f0     Mm:mm.obj
 0002:00002fb8       ??_C@_19BALNHBBC@?$AAL?$AAa?$AAn?$AAg?$AA?$AA@ 0000000000007138     EfiShellLib:Misc.obj
 0002:00002fc8       ??_C@_1BK@GGGENMOA@?$AAP?$AAl?$AAa?$AAt?$AAf?$AAo?$AAr?$AAm?$AAL?$AAa?$AAn?$AAg?$AA?$AA@ 0000000000007148     EfiShellLib:Misc.obj
 0002:00002fe4       ??_C@_15GANGMFKL@?$AA?$CF?$AAs?$AA?$AA@ 0000000000007164     EfiShellLib:Misc.obj
 0002:00002ff0       ??_C@_1GC@MIJCAPDC@?$AA?$CF?$AA0?$AA8?$AAx?$AA?9?$AA?$CF?$AA0?$AA4?$AAx?$AA?9?$AA?$CF?$AA0?$AA4?$AAx?$AA?9?$AA?$CF?$AA0?$AA2?$AAx?$AA?$CF?$AA0?$AA2?$AAx?$AA?9?$AA?$CF?$AA0?$AA2?$AAx?$AA?$CF?$AA0?$AA2?$AAx@ 0000000000007170     EfiShellLib:Misc.obj
 0002:00003058       ??_C@_1BA@JFDCMKFN@?$AAS?$AAu?$AAc?$AAc?$AAe?$AAs?$AAs?$AA?$AA@ 00000000000071d8     EfiShellLib:Misc.obj
 0002:00003068       ??_C@_1BG@IPPBEJLN@?$AAL?$AAo?$AAa?$AAd?$AA?5?$AAE?$AAr?$AAr?$AAo?$AAr?$AA?$AA@ 00000000000071e8     EfiShellLib:Misc.obj
 0002:00003080       ??_C@_1CE@FAJJAJHO@?$AAI?$AAn?$AAv?$AAa?$AAl?$AAi?$AAd?$AA?5?$AAP?$AAa?$AAr?$AAa?$AAm?$AAe?$AAt?$AAe?$AAr?$AA?$AA@ 0000000000007200     EfiShellLib:Misc.obj
 0002:000030a8       ??_C@_1BI@HACEKCKB@?$AAU?$AAn?$AAs?$AAu?$AAp?$AAp?$AAo?$AAr?$AAt?$AAe?$AAd?$AA?$AA@ 0000000000007228     EfiShellLib:Misc.obj
 0002:000030c0       ??_C@_1CA@MKNIKBGN@?$AAB?$AAa?$AAd?$AA?5?$AAB?$AAu?$AAf?$AAf?$AAe?$AAr?$AA?5?$AAS?$AAi?$AAz?$AAe?$AA?$AA@ 0000000000007240     EfiShellLib:Misc.obj
 0002:000030e0       ??_C@_1CC@GADLJCKI@?$AAB?$AAu?$AAf?$AAf?$AAe?$AAr?$AA?5?$AAT?$AAo?$AAo?$AA?5?$AAS?$AAm?$AAa?$AAl?$AAl?$AA?$AA@ 0000000000007260     EfiShellLib:Misc.obj
 0002:00003108       ??_C@_1BE@HFDAGNKF@?$AAN?$AAo?$AAt?$AA?5?$AAR?$AAe?$AAa?$AAd?$AAy?$AA?$AA@ 0000000000007288     EfiShellLib:Misc.obj
 0002:00003120       ??_C@_1BK@MPLHBIOA@?$AAD?$AAe?$AAv?$AAi?$AAc?$AAe?$AA?5?$AAE?$AAr?$AAr?$AAo?$AAr?$AA?$AA@ 00000000000072a0     EfiShellLib:Misc.obj
 0002:00003140       ??_C@_1CA@PAGBHICH@?$AAW?$AAr?$AAi?$AAt?$AAe?$AA?5?$AAP?$AAr?$AAo?$AAt?$AAe?$AAc?$AAt?$AAe?$AAd?$AA?$AA@ 00000000000072c0     EfiShellLib:Misc.obj
 0002:00003160       ??_C@_1CC@JDEEHPBA@?$AAO?$AAu?$AAt?$AA?5?$AAo?$AAf?$AA?5?$AAR?$AAe?$AAs?$AAo?$AAu?$AAr?$AAc?$AAe?$AAs?$AA?$AA@ 00000000000072e0     EfiShellLib:Misc.obj
 0002:00003188       ??_C@_1CC@IIFGLPAC@?$AAV?$AAo?$AAl?$AAu?$AAm?$AAe?$AA?5?$AAC?$AAo?$AAr?$AAr?$AAu?$AAp?$AAt?$AAe?$AAd?$AA?$AA@ 0000000000007308     EfiShellLib:Misc.obj
 0002:000031b0       ??_C@_1BI@KDMJOJPB@?$AAV?$AAo?$AAl?$AAu?$AAm?$AAe?$AA?5?$AAF?$AAu?$AAl?$AAl?$AA?$AA@ 0000000000007330     EfiShellLib:Misc.obj
 0002:000031c8       ??_C@_1BC@CAEJNJKB@?$AAN?$AAo?$AA?5?$AAM?$AAe?$AAd?$AAi?$AAa?$AA?$AA@ 0000000000007348     EfiShellLib:Misc.obj
 0002:000031e0       ??_C@_1BM@CGJAEDJP@?$AAM?$AAe?$AAd?$AAi?$AAa?$AA?5?$AAC?$AAh?$AAa?$AAn?$AAg?$AAe?$AAd?$AA?$AA@ 0000000000007360     EfiShellLib:Misc.obj
 0002:00003200       ??_C@_1BE@JGBFLIBK@?$AAN?$AAo?$AAt?$AA?5?$AAF?$AAo?$AAu?$AAn?$AAd?$AA?$AA@ 0000000000007380     EfiShellLib:Misc.obj
 0002:00003218       ??_C@_1BM@HDPINFLL@?$AAA?$AAc?$AAc?$AAe?$AAs?$AAs?$AA?5?$AAD?$AAe?$AAn?$AAi?$AAe?$AAd?$AA?$AA@ 0000000000007398     EfiShellLib:Misc.obj
 0002:00003238       ??_C@_1BI@JIAAMNOB@?$AAN?$AAo?$AA?5?$AAR?$AAe?$AAs?$AAp?$AAo?$AAn?$AAs?$AAe?$AA?$AA@ 00000000000073b8     EfiShellLib:Misc.obj
 0002:00003250       ??_C@_1BG@OHLJONME@?$AAN?$AAo?$AA?5?$AAM?$AAa?$AAp?$AAp?$AAi?$AAn?$AAg?$AA?$AA@ 00000000000073d0     EfiShellLib:Misc.obj
 0002:00003268       ??_C@_1BC@GINMNENH@?$AAT?$AAi?$AAm?$AAe?$AA?5?$AAO?$AAu?$AAt?$AA?$AA@ 00000000000073e8     EfiShellLib:Misc.obj
 0002:00003280       ??_C@_1BI@MNIOFEEM@?$AAN?$AAo?$AAt?$AA?5?$AAS?$AAt?$AAa?$AAr?$AAt?$AAe?$AAd?$AA?$AA@ 0000000000007400     EfiShellLib:Misc.obj
 0002:00003298       ??_C@_1CA@CNMNDJCM@?$AAA?$AAl?$AAr?$AAe?$AAa?$AAd?$AAy?$AA?5?$AAS?$AAt?$AAa?$AAr?$AAt?$AAe?$AAd?$AA?$AA@ 0000000000007418     EfiShellLib:Misc.obj
 0002:000032b8       ??_C@_1BA@JCPMFPEO@?$AAA?$AAb?$AAo?$AAr?$AAt?$AAe?$AAd?$AA?$AA@ 0000000000007438     EfiShellLib:Misc.obj
 0002:000032c8       ??_C@_1BG@GJCEBLMD@?$AAI?$AAC?$AAM?$AAP?$AA?5?$AAE?$AAr?$AAr?$AAo?$AAr?$AA?$AA@ 0000000000007448     EfiShellLib:Misc.obj
 0002:000032e0       ??_C@_1BG@MPDDBEKI@?$AAT?$AAF?$AAT?$AAP?$AA?5?$AAE?$AAr?$AAr?$AAo?$AAr?$AA?$AA@ 0000000000007460     EfiShellLib:Misc.obj
 0002:000032f8       ??_C@_1BO@MGICIKC@?$AAP?$AAr?$AAo?$AAt?$AAo?$AAc?$AAo?$AAl?$AA?5?$AAE?$AAr?$AAr?$AAo?$AAr?$AA?$AA@ 0000000000007478     EfiShellLib:Misc.obj
 0002:00003318       ??_C@_1CM@OIKNIHHI@?$AAW?$AAa?$AAr?$AAn?$AAi?$AAn?$AAg?$AA?5?$AAU?$AAn?$AAk?$AAn?$AAo?$AAw?$AAn?$AA?5?$AAG?$AAl?$AAy?$AAp?$AAh?$AA?$AA@ 0000000000007498     EfiShellLib:Misc.obj
 0002:00003348       ??_C@_1CO@MFHEGPPN@?$AAW?$AAa?$AAr?$AAn?$AAi?$AAn?$AAg?$AA?5?$AAD?$AAe?$AAl?$AAe?$AAt?$AAe?$AA?5?$AAF?$AAa?$AAi?$AAl?$AAu?$AAr?$AAe?$AA?$AA@ 00000000000074c8     EfiShellLib:Misc.obj
 0002:00003378       ??_C@_1CM@FKHEOEHO@?$AAW?$AAa?$AAr?$AAn?$AAi?$AAn?$AAg?$AA?5?$AAW?$AAr?$AAi?$AAt?$AAe?$AA?5?$AAF?$AAa?$AAi?$AAl?$AAu?$AAr?$AAe?$AA?$AA@ 00000000000074f8     EfiShellLib:Misc.obj
 0002:000033a8       ??_C@_1DC@LAAGMHGB@?$AAW?$AAa?$AAr?$AAn?$AAi?$AAn?$AAg?$AA?5?$AAB?$AAu?$AAf?$AAf?$AAe?$AAr?$AA?5?$AAT?$AAo?$AAo?$AA?5?$AAS?$AAm?$AAa?$AAl?$AAl?$AA?$AA@ 0000000000007528     EfiShellLib:Misc.obj
 0002:000033e0       ??_C@_1CK@CPNEFGBF@?$AAI?$AAn?$AAc?$AAo?$AAm?$AAp?$AAa?$AAt?$AAi?$AAb?$AAl?$AAe?$AA?5?$AAV?$AAe?$AAr?$AAs?$AAi?$AAo?$AAn?$AA?$AA@ 0000000000007560     EfiShellLib:Misc.obj
 0002:00003410       ??_C@_1CG@CONBDECJ@?$AAS?$AAe?$AAc?$AAu?$AAr?$AAi?$AAt?$AAy?$AA?5?$AAV?$AAi?$AAo?$AAl?$AAa?$AAt?$AAi?$AAo?$AAn?$AA?$AA@ 0000000000007590     EfiShellLib:Misc.obj
 0002:00003438       ??_C@_1BE@LNMOCCLF@?$AAC?$AAR?$AAC?$AA?5?$AAE?$AAr?$AAr?$AAo?$AAr?$AA?$AA@ 00000000000075b8     EfiShellLib:Misc.obj
 0002:00003450       ??_C@_1CE@OCFFKMII@?$AAN?$AAo?$AAt?$AA?5?$AAA?$AAv?$AAa?$AAi?$AAl?$AAa?$AAb?$AAl?$AAe?$AA?5?$AAY?$AAe?$AAt?$AA?$AA@ 00000000000075d0     EfiShellLib:Misc.obj
 0002:00003478       ??_C@_1BK@BJJGPOPI@?$AAU?$AAn?$AAl?$AAo?$AAa?$AAd?$AA?5?$AAI?$AAm?$AAa?$AAg?$AAe?$AA?$AA@ 00000000000075f8     EfiShellLib:Misc.obj
 0002:00003498       ??_C@_1DM@HHKGEKOD@?$AAW?$AAa?$AAr?$AAn?$AAi?$AAn?$AAg?$AA?5?$AAR?$AAe?$AAt?$AAu?$AAr?$AAn?$AA?5?$AAF?$AAr?$AAo?$AAm?$AA?5?$AAL?$AAo?$AAn?$AAg?$AA?5?$AAJ?$AAu?$AAm?$AAp?$AA?$AA@ 0000000000007618     EfiShellLib:Misc.obj
 0002:000034d4       ??_C@_15BHOFONJE@?$AA?$CF?$AAX?$AA?$AA@ 0000000000007654     EfiShellLib:Misc.obj
 0002:000034e0       ??_C@_1DI@JHANLOAN@?$AA?$CF?$AA0?$AA2?$AAd?$AA?1?$AA?$CF?$AA0?$AA2?$AAd?$AA?1?$AA?$CF?$AA0?$AA2?$AAd?$AA?5?$AA?5?$AA?$CF?$AA0?$AA2?$AAd?$AA?3?$AA?$CF?$AA0?$AA2?$AAd?$AA?$CF?$AAc?$AA?$AA@ 0000000000007660     EfiShellLib:Misc.obj
 0002:00003518       ??_C@_00CNPNBAHC@?$AA@     0000000000007698     EfiShellLib:Misc.obj
 0002:0000351c       ??_C@_03LKLGDMJI@eng?$AA@  000000000000769c     EfiShellLib:Misc.obj
 0002:00003520       ??_C@_05JJLPJMLG@en?9US?$AA@ 00000000000076a0     EfiShellLib:Misc.obj
 0002:00003528       ca                         00000000000076a8     EfiShellLib:Misc.obj
 0002:00003540       ??_C@_06OJHGLDPL@?$CInull?$CJ?$AA@ 00000000000076c0     EfiShellLib:IO.obj
 0002:00003548       ??_C@_1O@CEDCILHN@?$AA?$CI?$AAn?$AAu?$AAl?$AAl?$AA?$CJ?$AA?$AA@ 00000000000076c8     EfiShellLib:IO.obj
 0002:00003560       ??_C@_1EM@PFLICCFE@?$AAP?$AAr?$AAe?$AAs?$AAs?$AA?5?$AAE?$AAN?$AAT?$AAE?$AAR?$AA?5?$AAt?$AAo?$AA?5?$AAc?$AAo?$AAn?$AAt?$AAi?$AAn?$AAu?$AAe?$AA?0?$AA?5?$AA?8?$AAq?$AA?8?$AA?5?$AAt?$AAo?$AA?5@ 00000000000076e0     EfiShellLib:IO.obj
 0002:000035ac       ??_C@_15JNBOKNOG@?$AA?$AN?$AA?6?$AA?$AA@ 000000000000772c     EfiShellLib:IO.obj
 0002:000035b4       ??_C@_11LOCGONAA@?$AA?$AA@ 0000000000007734     EfiShellLib:IO.obj
 0002:000035b8       ??_C@_1O@KOGCFCFL@?$AA?$CF?$AAs?$AA?$CF?$AA?4?$AA?$CK?$AAs?$AA?$AA@ 0000000000007738     EfiShellLib:IO.obj
 0002:000035e0       HiiInitialized             0000000000007760     EfiShellLib:Init.obj
 0002:000035e8       HiiLibHandle               0000000000007768     EfiShellLib:Init.obj
 0002:000035f0       NumStrings                 0000000000007770     EfiShellLib:Init.obj
 0002:000035f8       ShellLibInitialized        0000000000007778     EfiShellLib:Data.obj
 0002:00003608       gLibHiiDatabase            0000000000007788     EfiShellLib:HiiSupport.obj
 0002:00003610       gLibHiiString              0000000000007790     EfiShellLib:HiiSupport.obj
 0002:00003618       mHiiProtocolsInitialized   0000000000007798     EfiShellLib:HiiSupport.obj
 0002:00003620       RT                         00000000000077a0     <common>
 0002:00003640       mPrintMode                 00000000000077c0     <common>
 0002:00003678       ST                         00000000000077f8     <common>
 0002:00003680       SE2                        0000000000007800     <common>
 0002:00003688       SE                         0000000000007808     <common>
 0002:00003690       BS                         0000000000007810     <common>
 0002:00003698       SI                         0000000000007818     <common>
 0002:000036a0       HiiHandle                  0000000000007820     <common>

 entry point at        0001:00000000

 Static symbols

 0002:00003530       Hex                        00000000000076b0     EfiShellLib:Misc.obj
 0002:00003600       mShellEnv                  0000000000007780     EfiShellLib:Misc.obj
 0003:00000000       $pdata$DumpIoModify        0000000000007840     Mm:mm.obj
 0003:0000000c       $pdata$OldShellParserMM    000000000000784c     Mm:mm.obj
 0003:00000018       $pdata$LibCheckVarGetFlag  0000000000007858     EfiShellLib:VarCheck.obj
 0003:00000024       $pdata$LibCheckVariables   0000000000007864     EfiShellLib:VarCheck.obj
 0003:00000030       $pdata$InitializeUnicodeCollationSupportWorker 0000000000007870     EfiShellLib:Init.obj
 0003:0000003c       $pdata$LibInitializeStrings 000000000000787c     EfiShellLib:Init.obj
 0003:00000048       $pdata$LibInitializeShellApplication 0000000000007888     EfiShellLib:Init.obj
 0003:00000054       $pdata$MetaMatch           0000000000007894     EfiShellLib:Str.obj
 0003:00000060       $pdata$StrToUIntegerBase   00000000000078a0     EfiShellLib:Str.obj
 0003:0000006c       $pdata$StrToUInteger       00000000000078ac     EfiShellLib:Str.obj
 0003:00000078       $pdata$LibGetVariableAndSize 00000000000078b8     EfiShellLib:Misc.obj
 0003:00000084       $pdata$GrowBuffer          00000000000078c4     EfiShellLib:Misc.obj
 0003:00000090       $pdata$GuidToString        00000000000078d0     EfiShellLib:Misc.obj
 0003:0000009c       $pdata$ValueToString       00000000000078dc     EfiShellLib:Misc.obj
 0003:000000a8       $pdata$GetBestLanguage     00000000000078e8     EfiShellLib:Misc.obj
 0003:000000b4       $pdata$LibSelectBestLanguage 00000000000078f4     EfiShellLib:Misc.obj
 0003:000000c0       $pdata$_SPrint             0000000000007900     EfiShellLib:IO.obj
 0003:000000cc       $pdata$SPrint              000000000000790c     EfiShellLib:IO.obj
 0003:000000d8       $pdata$Print               0000000000007918     EfiShellLib:IO.obj
 0003:000000e4       $pdata$PrintToken          0000000000007924     EfiShellLib:IO.obj
 0003:000000f0       $pdata$PrintAt             0000000000007930     EfiShellLib:IO.obj
 0003:000000fc       $pdata$_IPrint             000000000000793c     EfiShellLib:IO.obj
 0003:00000108       $pdata$PFLUSH              0000000000007948     EfiShellLib:IO.obj
 0003:00000114       $pdata$PSETATTR            0000000000007954     EfiShellLib:IO.obj
 0003:00000120       $pdata$PPUTC               0000000000007960     EfiShellLib:IO.obj
 0003:0000012c       $pdata$PITEM               000000000000796c     EfiShellLib:IO.obj
 0003:00000138       $pdata$_Print              0000000000007978     EfiShellLib:IO.obj
 0003:00000144       $pdata$SetPageBreak        0000000000007984     EfiShellLib:IO.obj
 0003:00000150       $pdata$IFlushWithPageBreak 0000000000007990     EfiShellLib:IO.obj
 0003:0000015c       $pdata$IInput              000000000000799c     EfiShellLib:IO.obj
 0003:00000168       $pdata$AllocatePool        00000000000079a8     EfiShellLib:Mem.obj
 0003:00000174       $pdata$AllocateZeroPool    00000000000079b4     EfiShellLib:Mem.obj
 0003:00000180       $pdata$LibLocateHandle     00000000000079c0     EfiShellLib:Handle.obj
 0003:0000018c       $pdata$LibLocateProtocol   00000000000079cc     EfiShellLib:Handle.obj
 0003:00000198       $pdata$LocateHiiProtocols  00000000000079d8     EfiShellLib:HiiSupport.obj
 0003:000001a4       $pdata$PreparePackageList  00000000000079e4     EfiShellLib:HiiSupport.obj
 0003:000001b0       $pdata$LibGetString        00000000000079f0     EfiShellLib:HiiSupport.obj
 0004:00000000       $unwind$DumpIoModify       0000000000007a00     Mm:mm.obj
 0004:0000001c       $unwind$OldShellParserMM   0000000000007a1c     Mm:mm.obj
 0004:00000034       $unwind$PSETATTR           0000000000007a34     EfiShellLib:IO.obj
 0004:00000034       $unwind$PPUTC              0000000000007a34     EfiShellLib:IO.obj
 0004:00000034       $unwind$LibCheckVarGetFlag 0000000000007a34     EfiShellLib:VarCheck.obj
 0004:00000040       $unwind$LibCheckVariables  0000000000007a40     EfiShellLib:VarCheck.obj
 0004:00000058       $unwind$InitializeUnicodeCollationSupportWorker 0000000000007a58     EfiShellLib:Init.obj
 0004:0000006c       $unwind$LibInitializeStrings 0000000000007a6c     EfiShellLib:Init.obj
 0004:00000078       $unwind$LibInitializeShellApplication 0000000000007a78     EfiShellLib:Init.obj
 0004:00000088       $unwind$MetaMatch          0000000000007a88     EfiShellLib:Str.obj
 0004:00000098       $unwind$StrToUIntegerBase  0000000000007a98     EfiShellLib:Str.obj
 0004:000000a4       $unwind$StrToUInteger      0000000000007aa4     EfiShellLib:Str.obj
 0004:000000b4       $unwind$LibGetVariableAndSize 0000000000007ab4     EfiShellLib:Misc.obj
 0004:000000c4       $unwind$GrowBuffer         0000000000007ac4     EfiShellLib:Misc.obj
 0004:000000d8       $unwind$GuidToString       0000000000007ad8     EfiShellLib:Misc.obj
 0004:000000f0       $unwind$ValueToString      0000000000007af0     EfiShellLib:Misc.obj
 0004:000000f8       $unwind$GetBestLanguage    0000000000007af8     EfiShellLib:Misc.obj
 0004:00000108       $unwind$LibSelectBestLanguage 0000000000007b08     EfiShellLib:Misc.obj
 0004:00000118       $unwind$AllocateZeroPool   0000000000007b18     EfiShellLib:Mem.obj
 0004:00000118       $unwind$_SPrint            0000000000007b18     EfiShellLib:IO.obj
 0004:00000120       $unwind$SPrint             0000000000007b20     EfiShellLib:IO.obj
 0004:0000012c       $unwind$Print              0000000000007b2c     EfiShellLib:IO.obj
 0004:00000134       $unwind$PrintToken         0000000000007b34     EfiShellLib:IO.obj
 0004:00000140       $unwind$PrintAt            0000000000007b40     EfiShellLib:IO.obj
 0004:00000148       $unwind$_IPrint            0000000000007b48     EfiShellLib:IO.obj
 0004:00000158       $unwind$PFLUSH             0000000000007b58     EfiShellLib:IO.obj
 0004:00000164       $unwind$PITEM              0000000000007b64     EfiShellLib:IO.obj
 0004:0000017c       $unwind$_Print             0000000000007b7c     EfiShellLib:IO.obj
 0004:0000019c       $unwind$SetPageBreak       0000000000007b9c     EfiShellLib:IO.obj
 0004:000001ac       $unwind$IFlushWithPageBreak 0000000000007bac     EfiShellLib:IO.obj
 0004:000001c4       $unwind$IInput             0000000000007bc4     EfiShellLib:IO.obj
 0004:000001dc       $unwind$AllocatePool       0000000000007bdc     EfiShellLib:Mem.obj
 0004:000001dc       $unwind$LocateHiiProtocols 0000000000007bdc     EfiShellLib:HiiSupport.obj
 0004:000001e4       $unwind$LibLocateHandle    0000000000007be4     EfiShellLib:Handle.obj
 0004:000001f8       $unwind$LibLocateProtocol  0000000000007bf8     EfiShellLib:Handle.obj
 0004:0000020c       $unwind$PreparePackageList 0000000000007c0c     EfiShellLib:HiiSupport.obj
 0004:00000220       $unwind$LibGetString       0000000000007c20     EfiShellLib:HiiSupport.obj
