 Cp

 Timestamp is 5bc88639 (Thu Oct 18 21:10:17 2018)

 Preferred load address is 0000000000000000

 Start         Length     Name                   Class
 0001:00000000 00005618H .text$mn                CODE
 0002:00000000 00002680H .data                   DATA
 0002:00002680 00000ad0H .rdata                  DATA
 0002:00003160 000000f1H .bss                    DATA
 0003:00000000 0000021cH .pdata                  DATA
 0004:00000000 00000280H .xdata                  DATA

  Address         Publics by Value              Rva+Base               Lib:Object

 0000:00000000       __guard_fids_count         0000000000000000     <absolute>
 0000:00000000       __guard_fids_table         0000000000000000     <absolute>
 0000:00000000       __guard_flags              0000000000000000     <absolute>
 0001:00000000       InitializeCP               0000000000000280 f   Cp:cp.obj
 0001:00000118       CPMainProcNew              0000000000000398 f   Cp:cp.obj
 0001:00000c60       CpCopy                     0000000000000ee0 f   Cp:cp.obj
 0001:00001800       CPMainProcOld              0000000000001a80 f   Cp:cp.obj
 0001:000022e4       StrCat                     0000000000002564 f   EfiShellLib:Str.obj
 0001:00002324       LibStubMetaiMatch          00000000000025a4 f   EfiShellLib:Str.obj
 0001:00002330       MetaMatch                  00000000000025b0 f   EfiShellLib:Str.obj
 0001:00002548       LibStubStriCmp             00000000000027c8 f   EfiShellLib:Str.obj
 0001:000025cc       LibStubStrUpr              000000000000284c f   EfiShellLib:Str.obj
 0001:000025ec       LibStubStrLwr              000000000000286c f   EfiShellLib:Str.obj
 0001:0000260c       StrSize                    000000000000288c f   EfiShellLib:Str.obj
 0001:00002630       StrDuplicate               00000000000028b0 f   EfiShellLib:Str.obj
 0001:00002674       StrTrimRight               00000000000028f4 f   EfiShellLib:Str.obj
 0001:000026d0       CopyMem                    0000000000002950 f   EfiShellLib:Mem.obj
 0001:00002714       AllocatePool               0000000000002994 f   EfiShellLib:Mem.obj
 0001:00002748       AllocateZeroPool           00000000000029c8 f   EfiShellLib:Mem.obj
 0001:00002774       LibCheckVarFreeVarList     00000000000029f4 f   EfiShellLib:VarCheck.obj
 0001:000027c4       LibCheckVarGetFlag         0000000000002a44 f   EfiShellLib:VarCheck.obj
 0001:00002808       iCompareSetFlag            0000000000002a88 f   EfiShellLib:VarCheck.obj
 0001:00002864       LibCheckVariables          0000000000002ae4 f   EfiShellLib:VarCheck.obj
 0001:00002bb0       ShellGetMap                0000000000002e30 f   EfiShellLib:ShellEnvInt.obj
 0001:00002c24       InitializeUnicodeCollationSupportWorker 0000000000002ea4 f   EfiShellLib:Init.obj
 0001:00002d20       LibInitializeStrings       0000000000002fa0 f   EfiShellLib:Init.obj
 0001:00002e10       LibInitializeShellApplication 0000000000003090 f   EfiShellLib:Init.obj
 0001:00003078       _SPrint                    00000000000032f8 f   EfiShellLib:IO.obj
 0001:000030f0       SPrint                     0000000000003370 f   EfiShellLib:IO.obj
 0001:00003164       Print                      00000000000033e4 f   EfiShellLib:IO.obj
 0001:000031a4       PrintToken                 0000000000003424 f   EfiShellLib:IO.obj
 0001:00003274       PrintAt                    00000000000034f4 f   EfiShellLib:IO.obj
 0001:000032a4       _IPrint                    0000000000003524 f   EfiShellLib:IO.obj
 0001:00003380       PFLUSH                     0000000000003600 f   EfiShellLib:IO.obj
 0001:00003440       PSETATTR                   00000000000036c0 f   EfiShellLib:IO.obj
 0001:00003484       PPUTC                      0000000000003704 f   EfiShellLib:IO.obj
 0001:00003500       PITEM                      0000000000003780 f   EfiShellLib:IO.obj
 0001:00003630       _Print                     00000000000038b0 f   EfiShellLib:IO.obj
 0001:00003c48       SetPageBreak               0000000000003ec8 f   EfiShellLib:IO.obj
 0001:00003d5c       IFlushWithPageBreak        0000000000003fdc f   EfiShellLib:IO.obj
 0001:00003ea0       IInput                     0000000000004120 f   EfiShellLib:IO.obj
 0001:000042c8       LibGetFileInfo             0000000000004548 f   EfiShellLib:FileIO.obj
 0001:0000432c       _ProcessDotInPath          00000000000045ac f   EfiShellLib:FileIO.obj
 0001:000045a8       _CheckContinuousSlash      0000000000004828 f   EfiShellLib:FileIO.obj
 0001:000045dc       LibSplitFsAndPath          000000000000485c f   EfiShellLib:FileIO.obj
 0001:000046c0       LibIsSubPath               0000000000004940 f   EfiShellLib:FileIO.obj
 0001:000048b8       LibGetVariableAndSize      0000000000004b38 f   EfiShellLib:Misc.obj
 0001:00004944       GrowBuffer                 0000000000004bc4 f   EfiShellLib:Misc.obj
 0001:000049e4       GuidToString               0000000000004c64 f   EfiShellLib:Misc.obj
 0001:00004af4       StatusToString             0000000000004d74 f   EfiShellLib:Misc.obj
 0001:00004e94       ValueToString              0000000000005114 f   EfiShellLib:Misc.obj
 0001:00004f7c       GetBestLanguage            00000000000051fc f   EfiShellLib:Misc.obj
 0001:000050d8       LibSelectBestLanguage      0000000000005358 f   EfiShellLib:Misc.obj
 0001:0000516c       DevicePathSize             00000000000053ec f   EfiShellLib:DPath.obj
 0001:000051a0       DevicePathCompare          0000000000005420 f   EfiShellLib:DPath.obj
 0001:00005200       LocateHiiProtocols         0000000000005480 f   EfiShellLib:HiiSupport.obj
 0001:0000524c       PreparePackageList         00000000000054cc f   EfiShellLib:HiiSupport.obj
 0001:00005340       LibGetString               00000000000055c0 f   EfiShellLib:HiiSupport.obj
 0001:000054d0       LibLocateHandle            0000000000005750 f   EfiShellLib:Handle.obj
 0001:00005574       LibLocateProtocol          00000000000057f4 f   EfiShellLib:Handle.obj
 0002:00000000       EfiCpyGuid                 00000000000058a0     Cp:cp.obj
 0002:00000010       CpCheckList                00000000000058b0     Cp:cp.obj
 0002:00000090       CpStrings                  0000000000005930     Cp:AutoGen.obj
 0002:00002598       SESGuid                    0000000000007e38     EfiShellLib:Init.obj
 0002:000025a8       UnicodeInterface           0000000000007e48     EfiShellLib:Data.obj
 0002:000025b0       PoolAllocationType         0000000000007e50     EfiShellLib:Data.obj
 0002:000025b8       ShellEnvProtocol           0000000000007e58     EfiShellLib:Data.obj
 0002:000025c8       LibStubUnicodeInterface    0000000000007e68     EfiShellLib:Data.obj
 0002:00002600       ShellInterfaceProtocol     0000000000007ea0     EfiShellLib:Misc.obj
 0002:00002610       gEfiLoadedImageProtocolGuid 0000000000007eb0     EfiProtocolLib:LoadedImage.obj
 0002:00002620       gEfiUnicodeCollation2ProtocolGuid 0000000000007ec0     EfiProtocolLib:UnicodeCollation2.obj
 0002:00002630       gEfiUnicodeCollationProtocolGuid 0000000000007ed0     EfiProtocolLib:UnicodeCollation.obj
 0002:00002640       gEfiFileInfoGuid           0000000000007ee0     EfiProtocolLib:FileInfo.obj
 0002:00002650       gEfiHiiStringProtocolGuid  0000000000007ef0     EfiProtocolLib:HiiString.obj
 0002:00002660       gEfiHiiDatabaseProtocolGuid 0000000000007f00     EfiProtocolLib:HiiDatabase.obj
 0002:00002670       gEfiGlobalVariableGuid     0000000000007f10     EfiGuidLib:GlobalVariable.obj
 0002:00002680       ??_C@_15DEDJCAKD@?$AA?9?$AAr?$AA?$AA@ 0000000000007f20     Cp:cp.obj
 0002:00002688       ??_C@_15CGIMIPEN@?$AA?9?$AAq?$AA?$AA@ 0000000000007f28     Cp:cp.obj
 0002:00002690       ??_C@_15GECAHHDM@?$AA?9?$AAb?$AA?$AA@ 0000000000007f30     Cp:cp.obj
 0002:00002698       ??_C@_15FNEHKAED@?$AA?9?$AA?$DP?$AA?$AA@ 0000000000007f38     Cp:cp.obj
 0002:000026a0       ??_C@_19DGCMIEJL@?$AA0?$AA?4?$AA9?$AA9?$AA?$AA@ 0000000000007f40     Cp:cp.obj
 0002:000026b0       ??_C@_1BA@KNAJJFKA@?$AAc?$AAp?$AA?1?$AAc?$AAo?$AAp?$AAy?$AA?$AA@ 0000000000007f50     Cp:cp.obj
 0002:000026c0       ??_C@_1M@GGGENIPJ@?$AA1?$AA?4?$AA1?$AA?4?$AA1?$AA?$AA@ 0000000000007f60     Cp:cp.obj
 0002:000026cc       ??_C@_13JOFGPIOO@?$AA?4?$AA?$AA@ 0000000000007f6c     Cp:cp.obj
 0002:000026d0       ??_C@_1M@DFKENGJN@?$AA?$CF?$AAs?$AA?2?$AA?$CF?$AAs?$AA?$AA@ 0000000000007f70     Cp:cp.obj
 0002:000026dc       ??_C@_11LOCGONAA@?$AA?$AA@ 0000000000007f7c     Cp:cp.obj
 0002:000026e0       ??_C@_13LBAGMAIH@?$AA?6?$AA?$AA@ 0000000000007f80     Cp:cp.obj
 0002:000026e4       ??_C@_15DDHGOCBH@?$AA?4?$AA?4?$AA?$AA@ 0000000000007f84     Cp:cp.obj
 0002:000026ec       ??_C@_13FPGAJAPJ@?$AA?2?$AA?$AA@ 0000000000007f8c     Cp:cp.obj
 0002:000026f0       ??_C@_1CO@BIKKLCGD@?$AAc?$AAp?$AA?3?$AA?5?$AAT?$AAo?$AAo?$AA?5?$AAf?$AAe?$AAw?$AA?5?$AAa?$AAr?$AAg?$AAu?$AAm?$AAe?$AAn?$AAt?$AAs?$AA?6?$AA?$AA@ 0000000000007f90     Cp:cp.obj
 0002:00002720       ??_C@_1FM@IHNPCNCJ@?$AAc?$AAp?$AA?3?$AA?5?$AAA?$AAr?$AAg?$AAu?$AAm?$AAe?$AAn?$AAt?$AA?5?$AAw?$AAi?$AAt?$AAh?$AA?5?$AAz?$AAe?$AAr?$AAo?$AA?5?$AAl?$AAe?$AAn?$AAg?$AAt?$AAh?$AA?5?$AAi?$AAs@ 0000000000007fc0     Cp:cp.obj
 0002:00002780       ??_C@_1DE@KBAAFOIO@?$AAc?$AAp?$AA?3?$AA?5?$AAC?$AAa?$AAn?$AAn?$AAo?$AAt?$AA?5?$AAo?$AAp?$AAe?$AAn?$AA?5?$AA?$CF?$AAh?$AAs?$AA?5?$AA?9?$AA?5?$AA?$CF?$AAr?$AA?6?$AA?$AA@ 0000000000008020     Cp:cp.obj
 0002:000027c0       ??_C@_1GO@BDPMEOA@?$AAc?$AAp?$AA?3?$AA?5?$AAC?$AAa?$AAn?$AAn?$AAo?$AAt?$AA?5?$AAo?$AAp?$AAe?$AAn?$AA?5?$AAc?$AAu?$AAr?$AAr?$AAe?$AAn?$AAt?$AA?5?$AAd?$AAi?$AAr?$AAe?$AAc?$AAt?$AAo?$AAr@ 0000000000008060     Cp:cp.obj
 0002:00002830       ??_C@_1FG@MDOFAHAP@?$AAc?$AAp?$AA?3?$AA?5?$AAM?$AAu?$AAl?$AAt?$AAi?$AAp?$AAl?$AAe?$AA?5?$AAd?$AAe?$AAs?$AAt?$AAi?$AAn?$AAa?$AAt?$AAi?$AAo?$AAn?$AAs?$AA?5?$AAa?$AAr?$AAe?$AA?5?$AAn?$AAo@ 00000000000080d0     Cp:cp.obj
 0002:00002890       ??_C@_1EE@ELNEOMFN@?$AAc?$AAp?$AA?3?$AA?5?$AAC?$AAa?$AAn?$AAn?$AAo?$AAt?$AA?5?$AAo?$AAp?$AAe?$AAn?$AA?5?$AAd?$AAe?$AAs?$AAt?$AAi?$AAn?$AAa?$AAt?$AAi?$AAo?$AAn?$AA?5?$AA?9?$AA?5?$AA?$CF?$AAr@ 0000000000008130     Cp:cp.obj
 0002:000028d8       ??_C@_1DG@COFHNDLE@?$AAc?$AAp?$AA?3?$AA?5?$AAS?$AAo?$AAu?$AAr?$AAc?$AAe?$AA?5?$AAf?$AAi?$AAl?$AAe?$AA?5?$AAn?$AAo?$AAt?$AA?5?$AAf?$AAo?$AAu?$AAn?$AAd?$AA?6?$AA?$AA@ 0000000000008178     Cp:cp.obj
 0002:00002910       ??_C@_1HE@DILOLOHD@?$AAc?$AAp?$AA?3?$AA?5?$AAC?$AAa?$AAn?$AAn?$AAo?$AAt?$AA?5?$AAc?$AAo?$AAp?$AAy?$AA?5?$AAm?$AAu?$AAl?$AAt?$AAi?$AAp?$AAl?$AAe?$AA?5?$AAs?$AAo?$AAu?$AAr?$AAc?$AAe?$AAs@ 00000000000081b0     Cp:cp.obj
 0002:00002990       ??_C@_1FA@BBFLDCGD@?$AAc?$AAp?$AA?3?$AA?5?$AAC?$AAa?$AAn?$AAn?$AAo?$AAt?$AA?5?$AAc?$AAr?$AAe?$AAa?$AAt?$AAe?$AA?5?$AAd?$AAe?$AAs?$AAt?$AAi?$AAn?$AAa?$AAt?$AAi?$AAo?$AAn?$AA?5?$AA?$CF?$AAh@ 0000000000008230     Cp:cp.obj
 0002:000029e0       ??_C@_1GC@EELNHMME@?$AAc?$AAp?$AA?3?$AA?5?$AAD?$AAe?$AAs?$AAt?$AAi?$AAn?$AAa?$AAt?$AAi?$AAo?$AAn?$AA?5?$AAi?$AAs?$AA?5?$AAr?$AAe?$AAa?$AAd?$AA?5?$AAo?$AAn?$AAl?$AAy?$AA?5?$AAo?$AAr?$AA?5@ 0000000000008280     Cp:cp.obj
 0002:00002a48       ??_C@_1CM@IAFEGDJM@?$AAC?$AAp?$AA?3?$AA?5?$AAO?$AAu?$AAt?$AA?5?$AAo?$AAf?$AA?5?$AAr?$AAe?$AAs?$AAo?$AAu?$AAr?$AAc?$AAe?$AAs?$AA?6?$AA?$AA@ 00000000000082e8     Cp:cp.obj
 0002:00002a78       ??_C@_1DO@CEKIEBJD@?$AAc?$AAp?$AA?3?$AA?5?$AAC?$AAa?$AAn?$AAn?$AAo?$AAt?$AA?5?$AAc?$AAo?$AAp?$AAy?$AA?5?$AA?$CF?$AAh?$AAs?$AA?5?$AAt?$AAo?$AA?5?$AAi?$AAt?$AAs?$AAe?$AAl?$AAf?$AA?6?$AA?$AA@ 0000000000008318     Cp:cp.obj
 0002:00002ac0       ??_C@_1FC@IOOPAHHD@?$AAc?$AAp?$AA?3?$AA?5?$AAC?$AAa?$AAn?$AAn?$AAo?$AAt?$AA?5?$AAc?$AAo?$AAp?$AAy?$AA?5?$AA?$CF?$AAh?$AAs?$AA?5?$AAt?$AAo?$AA?5?$AAi?$AAt?$AAs?$AA?5?$AAs?$AAu?$AAb?$AAd?$AAi@ 0000000000008360     Cp:cp.obj
 0002:00002b18       ??_C@_1CG@IECEGPOA@?$AAc?$AAp?$AA?3?$AA?5?$AAO?$AAu?$AAt?$AA?5?$AAo?$AAf?$AA?5?$AAm?$AAe?$AAm?$AAo?$AAr?$AAy?$AA?6?$AA?$AA@ 00000000000083b8     Cp:cp.obj
 0002:00002b40       ??_C@_06OJHGLDPL@?$CInull?$CJ?$AA@ 00000000000083e0     EfiShellLib:IO.obj
 0002:00002b48       ??_C@_1O@CEDCILHN@?$AA?$CI?$AAn?$AAu?$AAl?$AAl?$AA?$CJ?$AA?$AA@ 00000000000083e8     EfiShellLib:IO.obj
 0002:00002b60       ??_C@_1EM@PFLICCFE@?$AAP?$AAr?$AAe?$AAs?$AAs?$AA?5?$AAE?$AAN?$AAT?$AAE?$AAR?$AA?5?$AAt?$AAo?$AA?5?$AAc?$AAo?$AAn?$AAt?$AAi?$AAn?$AAu?$AAe?$AA?0?$AA?5?$AA?8?$AAq?$AA?8?$AA?5?$AAt?$AAo?$AA?5@ 0000000000008400     EfiShellLib:IO.obj
 0002:00002bac       ??_C@_15JNBOKNOG@?$AA?$AN?$AA?6?$AA?$AA@ 000000000000844c     EfiShellLib:IO.obj
 0002:00002bb8       ??_C@_1O@KOGCFCFL@?$AA?$CF?$AAs?$AA?$CF?$AA?4?$AA?$CK?$AAs?$AA?$AA@ 0000000000008458     EfiShellLib:IO.obj
 0002:00002bc8       ??_C@_15GANGMFKL@?$AA?$CF?$AAs?$AA?$AA@ 0000000000008468     EfiShellLib:IO.obj
 0002:00002bd0       ??_C@_19BALNHBBC@?$AAL?$AAa?$AAn?$AAg?$AA?$AA@ 0000000000008470     EfiShellLib:Misc.obj
 0002:00002be0       ??_C@_1BK@GGGENMOA@?$AAP?$AAl?$AAa?$AAt?$AAf?$AAo?$AAr?$AAm?$AAL?$AAa?$AAn?$AAg?$AA?$AA@ 0000000000008480     EfiShellLib:Misc.obj
 0002:00002c00       ??_C@_1GC@MIJCAPDC@?$AA?$CF?$AA0?$AA8?$AAx?$AA?9?$AA?$CF?$AA0?$AA4?$AAx?$AA?9?$AA?$CF?$AA0?$AA4?$AAx?$AA?9?$AA?$CF?$AA0?$AA2?$AAx?$AA?$CF?$AA0?$AA2?$AAx?$AA?9?$AA?$CF?$AA0?$AA2?$AAx?$AA?$CF?$AA0?$AA2?$AAx@ 00000000000084a0     EfiShellLib:Misc.obj
 0002:00002c68       ??_C@_1BA@JFDCMKFN@?$AAS?$AAu?$AAc?$AAc?$AAe?$AAs?$AAs?$AA?$AA@ 0000000000008508     EfiShellLib:Misc.obj
 0002:00002c78       ??_C@_1BG@IPPBEJLN@?$AAL?$AAo?$AAa?$AAd?$AA?5?$AAE?$AAr?$AAr?$AAo?$AAr?$AA?$AA@ 0000000000008518     EfiShellLib:Misc.obj
 0002:00002c90       ??_C@_1CE@FAJJAJHO@?$AAI?$AAn?$AAv?$AAa?$AAl?$AAi?$AAd?$AA?5?$AAP?$AAa?$AAr?$AAa?$AAm?$AAe?$AAt?$AAe?$AAr?$AA?$AA@ 0000000000008530     EfiShellLib:Misc.obj
 0002:00002cb8       ??_C@_1BI@HACEKCKB@?$AAU?$AAn?$AAs?$AAu?$AAp?$AAp?$AAo?$AAr?$AAt?$AAe?$AAd?$AA?$AA@ 0000000000008558     EfiShellLib:Misc.obj
 0002:00002cd0       ??_C@_1CA@MKNIKBGN@?$AAB?$AAa?$AAd?$AA?5?$AAB?$AAu?$AAf?$AAf?$AAe?$AAr?$AA?5?$AAS?$AAi?$AAz?$AAe?$AA?$AA@ 0000000000008570     EfiShellLib:Misc.obj
 0002:00002cf0       ??_C@_1CC@GADLJCKI@?$AAB?$AAu?$AAf?$AAf?$AAe?$AAr?$AA?5?$AAT?$AAo?$AAo?$AA?5?$AAS?$AAm?$AAa?$AAl?$AAl?$AA?$AA@ 0000000000008590     EfiShellLib:Misc.obj
 0002:00002d18       ??_C@_1BE@HFDAGNKF@?$AAN?$AAo?$AAt?$AA?5?$AAR?$AAe?$AAa?$AAd?$AAy?$AA?$AA@ 00000000000085b8     EfiShellLib:Misc.obj
 0002:00002d30       ??_C@_1BK@MPLHBIOA@?$AAD?$AAe?$AAv?$AAi?$AAc?$AAe?$AA?5?$AAE?$AAr?$AAr?$AAo?$AAr?$AA?$AA@ 00000000000085d0     EfiShellLib:Misc.obj
 0002:00002d50       ??_C@_1CA@PAGBHICH@?$AAW?$AAr?$AAi?$AAt?$AAe?$AA?5?$AAP?$AAr?$AAo?$AAt?$AAe?$AAc?$AAt?$AAe?$AAd?$AA?$AA@ 00000000000085f0     EfiShellLib:Misc.obj
 0002:00002d70       ??_C@_1CC@JDEEHPBA@?$AAO?$AAu?$AAt?$AA?5?$AAo?$AAf?$AA?5?$AAR?$AAe?$AAs?$AAo?$AAu?$AAr?$AAc?$AAe?$AAs?$AA?$AA@ 0000000000008610     EfiShellLib:Misc.obj
 0002:00002d98       ??_C@_1CC@IIFGLPAC@?$AAV?$AAo?$AAl?$AAu?$AAm?$AAe?$AA?5?$AAC?$AAo?$AAr?$AAr?$AAu?$AAp?$AAt?$AAe?$AAd?$AA?$AA@ 0000000000008638     EfiShellLib:Misc.obj
 0002:00002dc0       ??_C@_1BI@KDMJOJPB@?$AAV?$AAo?$AAl?$AAu?$AAm?$AAe?$AA?5?$AAF?$AAu?$AAl?$AAl?$AA?$AA@ 0000000000008660     EfiShellLib:Misc.obj
 0002:00002dd8       ??_C@_1BC@CAEJNJKB@?$AAN?$AAo?$AA?5?$AAM?$AAe?$AAd?$AAi?$AAa?$AA?$AA@ 0000000000008678     EfiShellLib:Misc.obj
 0002:00002df0       ??_C@_1BM@CGJAEDJP@?$AAM?$AAe?$AAd?$AAi?$AAa?$AA?5?$AAC?$AAh?$AAa?$AAn?$AAg?$AAe?$AAd?$AA?$AA@ 0000000000008690     EfiShellLib:Misc.obj
 0002:00002e10       ??_C@_1BE@JGBFLIBK@?$AAN?$AAo?$AAt?$AA?5?$AAF?$AAo?$AAu?$AAn?$AAd?$AA?$AA@ 00000000000086b0     EfiShellLib:Misc.obj
 0002:00002e28       ??_C@_1BM@HDPINFLL@?$AAA?$AAc?$AAc?$AAe?$AAs?$AAs?$AA?5?$AAD?$AAe?$AAn?$AAi?$AAe?$AAd?$AA?$AA@ 00000000000086c8     EfiShellLib:Misc.obj
 0002:00002e48       ??_C@_1BI@JIAAMNOB@?$AAN?$AAo?$AA?5?$AAR?$AAe?$AAs?$AAp?$AAo?$AAn?$AAs?$AAe?$AA?$AA@ 00000000000086e8     EfiShellLib:Misc.obj
 0002:00002e60       ??_C@_1BG@OHLJONME@?$AAN?$AAo?$AA?5?$AAM?$AAa?$AAp?$AAp?$AAi?$AAn?$AAg?$AA?$AA@ 0000000000008700     EfiShellLib:Misc.obj
 0002:00002e78       ??_C@_1BC@GINMNENH@?$AAT?$AAi?$AAm?$AAe?$AA?5?$AAO?$AAu?$AAt?$AA?$AA@ 0000000000008718     EfiShellLib:Misc.obj
 0002:00002e90       ??_C@_1BI@MNIOFEEM@?$AAN?$AAo?$AAt?$AA?5?$AAS?$AAt?$AAa?$AAr?$AAt?$AAe?$AAd?$AA?$AA@ 0000000000008730     EfiShellLib:Misc.obj
 0002:00002ea8       ??_C@_1CA@CNMNDJCM@?$AAA?$AAl?$AAr?$AAe?$AAa?$AAd?$AAy?$AA?5?$AAS?$AAt?$AAa?$AAr?$AAt?$AAe?$AAd?$AA?$AA@ 0000000000008748     EfiShellLib:Misc.obj
 0002:00002ec8       ??_C@_1BA@JCPMFPEO@?$AAA?$AAb?$AAo?$AAr?$AAt?$AAe?$AAd?$AA?$AA@ 0000000000008768     EfiShellLib:Misc.obj
 0002:00002ed8       ??_C@_1BG@GJCEBLMD@?$AAI?$AAC?$AAM?$AAP?$AA?5?$AAE?$AAr?$AAr?$AAo?$AAr?$AA?$AA@ 0000000000008778     EfiShellLib:Misc.obj
 0002:00002ef0       ??_C@_1BG@MPDDBEKI@?$AAT?$AAF?$AAT?$AAP?$AA?5?$AAE?$AAr?$AAr?$AAo?$AAr?$AA?$AA@ 0000000000008790     EfiShellLib:Misc.obj
 0002:00002f08       ??_C@_1BO@MGICIKC@?$AAP?$AAr?$AAo?$AAt?$AAo?$AAc?$AAo?$AAl?$AA?5?$AAE?$AAr?$AAr?$AAo?$AAr?$AA?$AA@ 00000000000087a8     EfiShellLib:Misc.obj
 0002:00002f28       ??_C@_1CM@OIKNIHHI@?$AAW?$AAa?$AAr?$AAn?$AAi?$AAn?$AAg?$AA?5?$AAU?$AAn?$AAk?$AAn?$AAo?$AAw?$AAn?$AA?5?$AAG?$AAl?$AAy?$AAp?$AAh?$AA?$AA@ 00000000000087c8     EfiShellLib:Misc.obj
 0002:00002f58       ??_C@_1CO@MFHEGPPN@?$AAW?$AAa?$AAr?$AAn?$AAi?$AAn?$AAg?$AA?5?$AAD?$AAe?$AAl?$AAe?$AAt?$AAe?$AA?5?$AAF?$AAa?$AAi?$AAl?$AAu?$AAr?$AAe?$AA?$AA@ 00000000000087f8     EfiShellLib:Misc.obj
 0002:00002f88       ??_C@_1CM@FKHEOEHO@?$AAW?$AAa?$AAr?$AAn?$AAi?$AAn?$AAg?$AA?5?$AAW?$AAr?$AAi?$AAt?$AAe?$AA?5?$AAF?$AAa?$AAi?$AAl?$AAu?$AAr?$AAe?$AA?$AA@ 0000000000008828     EfiShellLib:Misc.obj
 0002:00002fb8       ??_C@_1DC@LAAGMHGB@?$AAW?$AAa?$AAr?$AAn?$AAi?$AAn?$AAg?$AA?5?$AAB?$AAu?$AAf?$AAf?$AAe?$AAr?$AA?5?$AAT?$AAo?$AAo?$AA?5?$AAS?$AAm?$AAa?$AAl?$AAl?$AA?$AA@ 0000000000008858     EfiShellLib:Misc.obj
 0002:00002ff0       ??_C@_1CK@CPNEFGBF@?$AAI?$AAn?$AAc?$AAo?$AAm?$AAp?$AAa?$AAt?$AAi?$AAb?$AAl?$AAe?$AA?5?$AAV?$AAe?$AAr?$AAs?$AAi?$AAo?$AAn?$AA?$AA@ 0000000000008890     EfiShellLib:Misc.obj
 0002:00003020       ??_C@_1CG@CONBDECJ@?$AAS?$AAe?$AAc?$AAu?$AAr?$AAi?$AAt?$AAy?$AA?5?$AAV?$AAi?$AAo?$AAl?$AAa?$AAt?$AAi?$AAo?$AAn?$AA?$AA@ 00000000000088c0     EfiShellLib:Misc.obj
 0002:00003048       ??_C@_1BE@LNMOCCLF@?$AAC?$AAR?$AAC?$AA?5?$AAE?$AAr?$AAr?$AAo?$AAr?$AA?$AA@ 00000000000088e8     EfiShellLib:Misc.obj
 0002:00003060       ??_C@_1CE@OCFFKMII@?$AAN?$AAo?$AAt?$AA?5?$AAA?$AAv?$AAa?$AAi?$AAl?$AAa?$AAb?$AAl?$AAe?$AA?5?$AAY?$AAe?$AAt?$AA?$AA@ 0000000000008900     EfiShellLib:Misc.obj
 0002:00003088       ??_C@_1BK@BJJGPOPI@?$AAU?$AAn?$AAl?$AAo?$AAa?$AAd?$AA?5?$AAI?$AAm?$AAa?$AAg?$AAe?$AA?$AA@ 0000000000008928     EfiShellLib:Misc.obj
 0002:000030a8       ??_C@_1DM@HHKGEKOD@?$AAW?$AAa?$AAr?$AAn?$AAi?$AAn?$AAg?$AA?5?$AAR?$AAe?$AAt?$AAu?$AAr?$AAn?$AA?5?$AAF?$AAr?$AAo?$AAm?$AA?5?$AAL?$AAo?$AAn?$AAg?$AA?5?$AAJ?$AAu?$AAm?$AAp?$AA?$AA@ 0000000000008948     EfiShellLib:Misc.obj
 0002:000030e4       ??_C@_15BHOFONJE@?$AA?$CF?$AAX?$AA?$AA@ 0000000000008984     EfiShellLib:Misc.obj
 0002:000030f0       ??_C@_1DI@JHANLOAN@?$AA?$CF?$AA0?$AA2?$AAd?$AA?1?$AA?$CF?$AA0?$AA2?$AAd?$AA?1?$AA?$CF?$AA0?$AA2?$AAd?$AA?5?$AA?5?$AA?$CF?$AA0?$AA2?$AAd?$AA?3?$AA?$CF?$AA0?$AA2?$AAd?$AA?$CF?$AAc?$AA?$AA@ 0000000000008990     EfiShellLib:Misc.obj
 0002:00003128       ??_C@_00CNPNBAHC@?$AA@     00000000000089c8     EfiShellLib:Misc.obj
 0002:0000312c       ??_C@_03LKLGDMJI@eng?$AA@  00000000000089cc     EfiShellLib:Misc.obj
 0002:00003130       ??_C@_05JJLPJMLG@en?9US?$AA@ 00000000000089d0     EfiShellLib:Misc.obj
 0002:00003138       ca                         00000000000089d8     EfiShellLib:Misc.obj
 0002:00003160       HiiInitialized             0000000000008a00     EfiShellLib:Init.obj
 0002:00003168       HiiLibHandle               0000000000008a08     EfiShellLib:Init.obj
 0002:00003170       NumStrings                 0000000000008a10     EfiShellLib:Init.obj
 0002:00003178       ShellLibInitialized        0000000000008a18     EfiShellLib:Data.obj
 0002:00003188       gLibHiiDatabase            0000000000008a28     EfiShellLib:HiiSupport.obj
 0002:00003190       gLibHiiString              0000000000008a30     EfiShellLib:HiiSupport.obj
 0002:00003198       mHiiProtocolsInitialized   0000000000008a38     EfiShellLib:HiiSupport.obj
 0002:000031a0       RT                         0000000000008a40     <common>
 0002:000031c0       mPrintMode                 0000000000008a60     <common>
 0002:000031f8       ST                         0000000000008a98     <common>
 0002:00003200       SE2                        0000000000008aa0     <common>
 0002:00003208       SE                         0000000000008aa8     <common>
 0002:00003210       BS                         0000000000008ab0     <common>
 0002:00003218       SI                         0000000000008ab8     <common>
 0002:00003220       mCpDstDevice               0000000000008ac0     <common>
 0002:00003228       mCpSrcDevice               0000000000008ac8     <common>
 0002:00003230       mCpRecursive               0000000000008ad0     <common>
 0002:00003238       HiiCpyHandle               0000000000008ad8     <common>
 0002:00003240       mCpPrompt                  0000000000008ae0     <common>
 0002:00003248       mCpBuffer                  0000000000008ae8     <common>
 0002:00003250       mCpReplace                 0000000000008af0     <common>

 entry point at        0001:00000000

 Static symbols

 0002:00003140       Hex                        00000000000089e0     EfiShellLib:Misc.obj
 0002:00003180       mShellEnv                  0000000000008a20     EfiShellLib:Misc.obj
 0003:00000000       $pdata$InitializeCP        0000000000008b00     Cp:cp.obj
 0003:0000000c       $pdata$CPMainProcNew       0000000000008b0c     Cp:cp.obj
 0003:00000018       $pdata$CpCopy              0000000000008b18     Cp:cp.obj
 0003:00000024       $pdata$CPMainProcOld       0000000000008b24     Cp:cp.obj
 0003:00000030       $pdata$MetaMatch           0000000000008b30     EfiShellLib:Str.obj
 0003:0000003c       $pdata$StrDuplicate        0000000000008b3c     EfiShellLib:Str.obj
 0003:00000048       $pdata$AllocatePool        0000000000008b48     EfiShellLib:Mem.obj
 0003:00000054       $pdata$AllocateZeroPool    0000000000008b54     EfiShellLib:Mem.obj
 0003:00000060       $pdata$LibCheckVarFreeVarList 0000000000008b60     EfiShellLib:VarCheck.obj
 0003:0000006c       $pdata$LibCheckVarGetFlag  0000000000008b6c     EfiShellLib:VarCheck.obj
 0003:00000078       $pdata$LibCheckVariables   0000000000008b78     EfiShellLib:VarCheck.obj
 0003:00000084       $pdata$ShellGetMap         0000000000008b84     EfiShellLib:ShellEnvInt.obj
 0003:00000090       $pdata$InitializeUnicodeCollationSupportWorker 0000000000008b90     EfiShellLib:Init.obj
 0003:0000009c       $pdata$LibInitializeStrings 0000000000008b9c     EfiShellLib:Init.obj
 0003:000000a8       $pdata$LibInitializeShellApplication 0000000000008ba8     EfiShellLib:Init.obj
 0003:000000b4       $pdata$_SPrint             0000000000008bb4     EfiShellLib:IO.obj
 0003:000000c0       $pdata$SPrint              0000000000008bc0     EfiShellLib:IO.obj
 0003:000000cc       $pdata$Print               0000000000008bcc     EfiShellLib:IO.obj
 0003:000000d8       $pdata$PrintToken          0000000000008bd8     EfiShellLib:IO.obj
 0003:000000e4       $pdata$PrintAt             0000000000008be4     EfiShellLib:IO.obj
 0003:000000f0       $pdata$_IPrint             0000000000008bf0     EfiShellLib:IO.obj
 0003:000000fc       $pdata$PFLUSH              0000000000008bfc     EfiShellLib:IO.obj
 0003:00000108       $pdata$PSETATTR            0000000000008c08     EfiShellLib:IO.obj
 0003:00000114       $pdata$PPUTC               0000000000008c14     EfiShellLib:IO.obj
 0003:00000120       $pdata$PITEM               0000000000008c20     EfiShellLib:IO.obj
 0003:0000012c       $pdata$_Print              0000000000008c2c     EfiShellLib:IO.obj
 0003:00000138       $pdata$SetPageBreak        0000000000008c38     EfiShellLib:IO.obj
 0003:00000144       $pdata$IFlushWithPageBreak 0000000000008c44     EfiShellLib:IO.obj
 0003:00000150       $pdata$IInput              0000000000008c50     EfiShellLib:IO.obj
 0003:0000015c       $pdata$LibGetFileInfo      0000000000008c5c     EfiShellLib:FileIO.obj
 0003:00000168       $pdata$_ProcessDotInPath   0000000000008c68     EfiShellLib:FileIO.obj
 0003:00000174       $pdata$LibSplitFsAndPath   0000000000008c74     EfiShellLib:FileIO.obj
 0003:00000180       $pdata$LibIsSubPath        0000000000008c80     EfiShellLib:FileIO.obj
 0003:0000018c       $pdata$LibGetVariableAndSize 0000000000008c8c     EfiShellLib:Misc.obj
 0003:00000198       $pdata$GrowBuffer          0000000000008c98     EfiShellLib:Misc.obj
 0003:000001a4       $pdata$GuidToString        0000000000008ca4     EfiShellLib:Misc.obj
 0003:000001b0       $pdata$ValueToString       0000000000008cb0     EfiShellLib:Misc.obj
 0003:000001bc       $pdata$GetBestLanguage     0000000000008cbc     EfiShellLib:Misc.obj
 0003:000001c8       $pdata$LibSelectBestLanguage 0000000000008cc8     EfiShellLib:Misc.obj
 0003:000001d4       $pdata$DevicePathCompare   0000000000008cd4     EfiShellLib:DPath.obj
 0003:000001e0       $pdata$LocateHiiProtocols  0000000000008ce0     EfiShellLib:HiiSupport.obj
 0003:000001ec       $pdata$PreparePackageList  0000000000008cec     EfiShellLib:HiiSupport.obj
 0003:000001f8       $pdata$LibGetString        0000000000008cf8     EfiShellLib:HiiSupport.obj
 0003:00000204       $pdata$LibLocateHandle     0000000000008d04     EfiShellLib:Handle.obj
 0003:00000210       $pdata$LibLocateProtocol   0000000000008d10     EfiShellLib:Handle.obj
 0004:00000000       $unwind$PPUTC              0000000000008d20     EfiShellLib:IO.obj
 0004:00000000       $unwind$PSETATTR           0000000000008d20     EfiShellLib:IO.obj
 0004:00000000       $unwind$LibCheckVarGetFlag 0000000000008d20     EfiShellLib:VarCheck.obj
 0004:00000000       $unwind$StrDuplicate       0000000000008d20     EfiShellLib:Str.obj
 0004:00000000       $unwind$InitializeCP       0000000000008d20     Cp:cp.obj
 0004:0000000c       $unwind$CPMainProcNew      0000000000008d2c     Cp:cp.obj
 0004:00000024       $unwind$CpCopy             0000000000008d44     Cp:cp.obj
 0004:00000038       $unwind$CPMainProcOld      0000000000008d58     Cp:cp.obj
 0004:00000050       $unwind$MetaMatch          0000000000008d70     EfiShellLib:Str.obj
 0004:00000060       $unwind$LocateHiiProtocols 0000000000008d80     EfiShellLib:HiiSupport.obj
 0004:00000060       $unwind$AllocatePool       0000000000008d80     EfiShellLib:Mem.obj
 0004:00000060       $unwind$DevicePathCompare  0000000000008d80     EfiShellLib:DPath.obj
 0004:00000068       $unwind$AllocateZeroPool   0000000000008d88     EfiShellLib:Mem.obj
 0004:00000068       $unwind$_SPrint            0000000000008d88     EfiShellLib:IO.obj
 0004:00000068       $unwind$LibCheckVarFreeVarList 0000000000008d88     EfiShellLib:VarCheck.obj
 0004:00000070       $unwind$LibCheckVariables  0000000000008d90     EfiShellLib:VarCheck.obj
 0004:00000088       $unwind$ShellGetMap        0000000000008da8     EfiShellLib:ShellEnvInt.obj
 0004:00000098       $unwind$InitializeUnicodeCollationSupportWorker 0000000000008db8     EfiShellLib:Init.obj
 0004:000000ac       $unwind$LibInitializeStrings 0000000000008dcc     EfiShellLib:Init.obj
 0004:000000b8       $unwind$LibInitializeShellApplication 0000000000008dd8     EfiShellLib:Init.obj
 0004:000000c8       $unwind$SPrint             0000000000008de8     EfiShellLib:IO.obj
 0004:000000d4       $unwind$Print              0000000000008df4     EfiShellLib:IO.obj
 0004:000000dc       $unwind$PrintToken         0000000000008dfc     EfiShellLib:IO.obj
 0004:000000e8       $unwind$PrintAt            0000000000008e08     EfiShellLib:IO.obj
 0004:000000f0       $unwind$_IPrint            0000000000008e10     EfiShellLib:IO.obj
 0004:00000100       $unwind$PFLUSH             0000000000008e20     EfiShellLib:IO.obj
 0004:0000010c       $unwind$PITEM              0000000000008e2c     EfiShellLib:IO.obj
 0004:00000124       $unwind$_Print             0000000000008e44     EfiShellLib:IO.obj
 0004:00000144       $unwind$SetPageBreak       0000000000008e64     EfiShellLib:IO.obj
 0004:00000154       $unwind$LibSplitFsAndPath  0000000000008e74     EfiShellLib:FileIO.obj
 0004:00000154       $unwind$IFlushWithPageBreak 0000000000008e74     EfiShellLib:IO.obj
 0004:0000016c       $unwind$IInput             0000000000008e8c     EfiShellLib:IO.obj
 0004:00000184       $unwind$LibGetFileInfo     0000000000008ea4     EfiShellLib:FileIO.obj
 0004:00000190       $unwind$_ProcessDotInPath  0000000000008eb0     EfiShellLib:FileIO.obj
 0004:000001ac       $unwind$LibIsSubPath       0000000000008ecc     EfiShellLib:FileIO.obj
 0004:000001c4       $unwind$LibGetVariableAndSize 0000000000008ee4     EfiShellLib:Misc.obj
 0004:000001d4       $unwind$GrowBuffer         0000000000008ef4     EfiShellLib:Misc.obj
 0004:000001e8       $unwind$GuidToString       0000000000008f08     EfiShellLib:Misc.obj
 0004:00000200       $unwind$ValueToString      0000000000008f20     EfiShellLib:Misc.obj
 0004:00000208       $unwind$GetBestLanguage    0000000000008f28     EfiShellLib:Misc.obj
 0004:00000218       $unwind$LibSelectBestLanguage 0000000000008f38     EfiShellLib:Misc.obj
 0004:00000228       $unwind$PreparePackageList 0000000000008f48     EfiShellLib:HiiSupport.obj
 0004:0000023c       $unwind$LibGetString       0000000000008f5c     EfiShellLib:HiiSupport.obj
 0004:00000258       $unwind$LibLocateHandle    0000000000008f78     EfiShellLib:Handle.obj
 0004:0000026c       $unwind$LibLocateProtocol  0000000000008f8c     EfiShellLib:Handle.obj
